   1              		.cpu cortex-m0plus
   2              		.fpu softvfp
   3              		.eabi_attribute 20, 1
   4              		.eabi_attribute 21, 1
   5              		.eabi_attribute 23, 3
   6              		.eabi_attribute 24, 1
   7              		.eabi_attribute 25, 1
   8              		.eabi_attribute 26, 1
   9              		.eabi_attribute 30, 4
  10              		.eabi_attribute 34, 0
  11              		.eabi_attribute 18, 4
  12              		.code	16
  13              		.file	"board_driver_usb.c"
  14              		.section	.text.USB_IsConfigured,"ax",%progbits
  15              		.align	1
  16              		.global	USB_IsConfigured
  17              		.code	16
  18              		.thumb_func
  20              	USB_IsConfigured:
  21 0000 70B5     		push	{r4, r5, r6, lr}
  22 0002 0368     		ldr	r3, [r0]
  23 0004 041C     		mov	r4, r0
  24 0006 988B     		ldrh	r0, [r3, #28]
  25 0008 1A1C     		mov	r2, r3
  26 000a 0821     		mov	r1, #8
  27 000c FF32     		add	r2, r2, #255
  28 000e 0842     		tst	r0, r1
  29 0010 26D0     		beq	.L2
  30 0012 8020     		mov	r0, #128
  31 0014 9983     		strh	r1, [r3, #28]
  32 0016 9872     		strb	r0, [r3, #10]
  33 0018 1123     		mov	r3, #17
  34 001a 5370     		strb	r3, [r2, #1]
  35 001c 4021     		mov	r1, #64
  36 001e 144B     		ldr	r3, .L8
  37 0020 9171     		strb	r1, [r2, #6]
  38 0022 5071     		strb	r0, [r2, #5]
  39 0024 5E68     		ldr	r6, [r3, #4]
  40 0026 134D     		ldr	r5, .L8+4
  41 0028 C020     		mov	r0, #192
  42 002a 2E40     		and	r6, r5
  43 002c 8005     		lsl	r0, r0, #22
  44 002e 0643     		orr	r6, r0
  45 0030 5E60     		str	r6, [r3, #4]
  46 0032 5E69     		ldr	r6, [r3, #20]
  47 0034 3540     		and	r5, r6
  48 0036 2843     		orr	r0, r5
  49 0038 5861     		str	r0, [r3, #20]
  50 003a 0F48     		ldr	r0, .L8+8
  51 003c 1860     		str	r0, [r3]
  52 003e 0F48     		ldr	r0, .L8+12
  53 0040 1861     		str	r0, [r3, #16]
  54 0042 5D68     		ldr	r5, [r3, #4]
  55 0044 0E48     		ldr	r0, .L8+16
  56 0046 2840     		and	r0, r5
  57 0048 8025     		mov	r5, #128
  58 004a AD02     		lsl	r5, r5, #10
  59 004c 2843     		orr	r0, r5
  60 004e 5860     		str	r0, [r3, #4]
  61 0050 5868     		ldr	r0, [r3, #4]
  62 0052 800B     		lsr	r0, r0, #14
  63 0054 8003     		lsl	r0, r0, #14
  64 0056 5860     		str	r0, [r3, #4]
  65 0058 0023     		mov	r3, #0
  66 005a 5171     		strb	r1, [r2, #5]
  67 005c 2371     		strb	r3, [r4, #4]
  68 005e 05E0     		b	.L3
  69              	.L2:
  70 0060 137A     		ldrb	r3, [r2, #8]
  71 0062 DA06     		lsl	r2, r3, #27
  72 0064 02D5     		bpl	.L3
  73 0066 201C     		mov	r0, r4
  74 0068 FFF7FEFF 		bl	sam_ba_usb_CDC_Enumerate
  75              	.L3:
  76 006c 2079     		ldrb	r0, [r4, #4]
  77              		@ sp needed
  78 006e 70BD     		pop	{r4, r5, r6, pc}
  79              	.L9:
  80              		.align	2
  81              	.L8:
  82 0070 00000000 		.word	usb_endpoint_table
  83 0074 FFFFFF8F 		.word	-1879048193
  84 0078 00000000 		.word	udd_ep_out_cache_buffer
  85 007c 00000000 		.word	udd_ep_in_cache_buffer
  86 0080 FF3F00F0 		.word	-268419073
  88              		.section	.text.USB_Open,"ax",%progbits
  89              		.align	1
  90              		.global	USB_Open
  91              		.code	16
  92              		.thumb_func
  94              	USB_Open:
  95 0000 0023     		mov	r3, #0
  96 0002 0371     		strb	r3, [r0, #4]
  97 0004 4371     		strb	r3, [r0, #5]
  98 0006 044B     		ldr	r3, .L11
  99 0008 0160     		str	r1, [r0]
 100 000a 8360     		str	r3, [r0, #8]
 101 000c 0B78     		ldrb	r3, [r1]
 102 000e 0222     		mov	r2, #2
 103 0010 1343     		orr	r3, r2
 104 0012 0B70     		strb	r3, [r1]
 105              		@ sp needed
 106 0014 7047     		bx	lr
 107              	.L12:
 108 0016 C046     		.align	2
 109              	.L11:
 110 0018 00000000 		.word	USB_IsConfigured
 112              		.section	.text.USB_Init,"ax",%progbits
 113              		.align	1
 114              		.global	USB_Init
 115              		.code	16
 116              		.thumb_func
 118              	USB_Init:
 119 0000 38B5     		push	{r3, r4, r5, lr}
 120 0002 364B     		ldr	r3, .L24
 121 0004 2021     		mov	r1, #32
 122 0006 DA69     		ldr	r2, [r3, #28]
 123 0008 0120     		mov	r0, #1
 124 000a 0A43     		orr	r2, r1
 125 000c DA61     		str	r2, [r3, #28]
 126 000e 344B     		ldr	r3, .L24+4
 127 0010 0624     		mov	r4, #6
 128 0012 1A78     		ldrb	r2, [r3]
 129 0014 0243     		orr	r2, r0
 130 0016 1A70     		strb	r2, [r3]
 131 0018 324B     		ldr	r3, .L24+8
 132 001a 0F22     		mov	r2, #15
 133 001c 1978     		ldrb	r1, [r3]
 134 001e 9143     		bic	r1, r2
 135 0020 1970     		strb	r1, [r3]
 136 0022 1978     		ldrb	r1, [r3]
 137 0024 2143     		orr	r1, r4
 138 0026 1970     		strb	r1, [r3]
 139 0028 2F49     		ldr	r1, .L24+12
 140 002a 0C78     		ldrb	r4, [r1]
 141 002c 2043     		orr	r0, r4
 142 002e 0870     		strb	r0, [r1]
 143 0030 1978     		ldrb	r1, [r3]
 144 0032 0A40     		and	r2, r1
 145 0034 1A70     		strb	r2, [r3]
 146 0036 1A78     		ldrb	r2, [r3]
 147 0038 6021     		mov	r1, #96
 148 003a 0A43     		orr	r2, r1
 149 003c 1A70     		strb	r2, [r3]
 150 003e 2B4B     		ldr	r3, .L24+16
 151 0040 2B4A     		ldr	r2, .L24+20
 152 0042 5A80     		strh	r2, [r3, #2]
 153              	.L15:
 154 0044 5A78     		ldrb	r2, [r3, #1]
 155 0046 52B2     		sxtb	r2, r2
 156 0048 002A     		cmp	r2, #0
 157 004a FBDB     		blt	.L15
 158 004c 294B     		ldr	r3, .L24+24
 159 004e 0121     		mov	r1, #1
 160 0050 1A78     		ldrb	r2, [r3]
 161 0052 0A43     		orr	r2, r1
 162 0054 1A70     		strb	r2, [r3]
 163              	.L17:
 164 0056 9A78     		ldrb	r2, [r3, #2]
 165 0058 D107     		lsl	r1, r2, #31
 166 005a FCD4     		bmi	.L17
 167 005c 2648     		ldr	r0, .L24+28
 168 005e 0268     		ldr	r2, [r0]
 169 0060 510B     		lsr	r1, r2, #13
 170 0062 1F22     		mov	r2, #31
 171 0064 1140     		and	r1, r2
 172 0066 9142     		cmp	r1, r2
 173 0068 00D1     		bne	.L18
 174 006a 0521     		mov	r1, #5
 175              	.L18:
 176 006c 1140     		and	r1, r2
 177 006e 8C01     		lsl	r4, r1, #6
 178 0070 1D8D     		ldrh	r5, [r3, #40]
 179 0072 2249     		ldr	r1, .L24+32
 180 0074 2940     		and	r1, r5
 181 0076 2143     		orr	r1, r4
 182 0078 1985     		strh	r1, [r3, #40]
 183 007a 0468     		ldr	r4, [r0]
 184 007c A10C     		lsr	r1, r4, #18
 185 007e 0A40     		and	r2, r1
 186 0080 1F2A     		cmp	r2, #31
 187 0082 00D1     		bne	.L19
 188 0084 1D22     		mov	r2, #29
 189              	.L19:
 190 0086 1C8D     		ldrh	r4, [r3, #40]
 191 0088 1F21     		mov	r1, #31
 192 008a 0A40     		and	r2, r1
 193 008c 8C43     		bic	r4, r1
 194 008e 2243     		orr	r2, r4
 195 0090 1A85     		strh	r2, [r3, #40]
 196 0092 0268     		ldr	r2, [r0]
 197 0094 0721     		mov	r1, #7
 198 0096 D20D     		lsr	r2, r2, #23
 199 0098 0A40     		and	r2, r1
 200 009a 8A42     		cmp	r2, r1
 201 009c 00D1     		bne	.L20
 202 009e 0322     		mov	r2, #3
 203              	.L20:
 204 00a0 0A40     		and	r2, r1
 205 00a2 188D     		ldrh	r0, [r3, #40]
 206 00a4 1103     		lsl	r1, r2, #12
 207 00a6 164A     		ldr	r2, .L24+36
 208              		@ sp needed
 209 00a8 0240     		and	r2, r0
 210 00aa 0A43     		orr	r2, r1
 211 00ac 1A85     		strh	r2, [r3, #40]
 212 00ae 1978     		ldrb	r1, [r3]
 213 00b0 7F22     		mov	r2, #127
 214 00b2 0A40     		and	r2, r1
 215 00b4 1A70     		strb	r2, [r3]
 216 00b6 1A78     		ldrb	r2, [r3]
 217 00b8 0421     		mov	r1, #4
 218 00ba 1248     		ldr	r0, .L24+40
 219 00bc 0A43     		orr	r2, r1
 220 00be 1A70     		strb	r2, [r3]
 221 00c0 5862     		str	r0, [r3, #36]
 222 00c2 1A89     		ldrh	r2, [r3, #8]
 223 00c4 0C21     		mov	r1, #12
 224 00c6 8A43     		bic	r2, r1
 225 00c8 1A81     		strh	r2, [r3, #8]
 226 00ca 1A89     		ldrh	r2, [r3, #8]
 227 00cc 0121     		mov	r1, #1
 228 00ce 8A43     		bic	r2, r1
 229 00d0 1A81     		strh	r2, [r3, #8]
 230 00d2 0021     		mov	r1, #0
 231 00d4 8022     		mov	r2, #128
 232 00d6 FFF7FEFF 		bl	memset
 233 00da 38BD     		pop	{r3, r4, r5, pc}
 234              	.L25:
 235              		.align	2
 236              	.L24:
 237 00dc 00040040 		.word	1073742848
 238 00e0 58440041 		.word	1090536536
 239 00e4 3C440041 		.word	1090536508
 240 00e8 59440041 		.word	1090536537
 241 00ec 000C0040 		.word	1073744896
 242 00f0 06400000 		.word	16390
 243 00f4 00500041 		.word	1090539520
 244 00f8 24608000 		.word	8413220
 245 00fc 3FF8FFFF 		.word	-1985
 246 0100 FF8FFFFF 		.word	-28673
 247 0104 00000000 		.word	usb_endpoint_table
 249              		.section	.text.USB_Write,"ax",%progbits
 250              		.align	1
 251              		.global	USB_Write
 252              		.code	16
 253              		.thumb_func
 255              	USB_Write:
 256 0000 F7B5     		push	{r0, r1, r2, r4, r5, r6, r7, lr}
 257 0002 141C     		mov	r4, r2
 258 0004 1F4A     		ldr	r2, .L31
 259 0006 5F01     		lsl	r7, r3, #5
 260 0008 0197     		str	r7, [sp, #4]
 261 000a 1D1C     		mov	r5, r3
 262 000c D319     		add	r3, r2, r7
 263 000e 061C     		mov	r6, r0
 264 0010 5869     		ldr	r0, [r3, #20]
 265 0012 271C     		mov	r7, r4
 266 0014 4000     		lsl	r0, r0, #1
 267 0016 400F     		lsr	r0, r0, #29
 268 0018 0330     		add	r0, r0, #3
 269 001a 1033     		add	r3, r3, #16
 270 001c C740     		lsr	r7, r7, r0
 271 001e 06D0     		beq	.L27
 272 0020 0F1C     		mov	r7, r1
 273 0022 8022     		mov	r2, #128
 274 0024 5968     		ldr	r1, [r3, #4]
 275 0026 1206     		lsl	r2, r2, #24
 276 0028 0A43     		orr	r2, r1
 277 002a 5A60     		str	r2, [r3, #4]
 278 002c 09E0     		b	.L28
 279              	.L27:
 280 002e 2F1C     		mov	r7, r5
 281 0030 7B1E     		sub	r3, r7, #1
 282 0032 9F41     		sbc	r7, r7, r3
 283 0034 144B     		ldr	r3, .L31+4
 284 0036 BF01     		lsl	r7, r7, #6
 285 0038 FF18     		add	r7, r7, r3
 286 003a 381C     		mov	r0, r7
 287 003c 221C     		mov	r2, r4
 288 003e FFF7FEFF 		bl	memcpy
 289              	.L28:
 290 0042 0199     		ldr	r1, [sp, #4]
 291 0044 0F48     		ldr	r0, .L31
 292 0046 0835     		add	r5, r5, #8
 293 0048 4218     		add	r2, r0, r1
 294 004a 1761     		str	r7, [r2, #16]
 295 004c 131C     		mov	r3, r2
 296 004e 5269     		ldr	r2, [r2, #20]
 297 0050 A104     		lsl	r1, r4, #18
 298 0052 920B     		lsr	r2, r2, #14
 299 0054 890C     		lsr	r1, r1, #18
 300 0056 9203     		lsl	r2, r2, #14
 301 0058 0A43     		orr	r2, r1
 302 005a 5A61     		str	r2, [r3, #20]
 303 005c 5969     		ldr	r1, [r3, #20]
 304 005e 0B4A     		ldr	r2, .L31+8
 305 0060 0A40     		and	r2, r1
 306 0062 5A61     		str	r2, [r3, #20]
 307 0064 6B01     		lsl	r3, r5, #5
 308 0066 F318     		add	r3, r6, r3
 309 0068 0222     		mov	r2, #2
 310 006a DA71     		strb	r2, [r3, #7]
 311 006c 5979     		ldrb	r1, [r3, #5]
 312 006e 8022     		mov	r2, #128
 313 0070 5242     		neg	r2, r2
 314 0072 0A43     		orr	r2, r1
 315 0074 5A71     		strb	r2, [r3, #5]
 316              	.L30:
 317 0076 6B01     		lsl	r3, r5, #5
 318 0078 F318     		add	r3, r6, r3
 319 007a DB79     		ldrb	r3, [r3, #7]
 320 007c 9A07     		lsl	r2, r3, #30
 321 007e FAD5     		bpl	.L30
 322 0080 201C     		mov	r0, r4
 323              		@ sp needed
 324 0082 FEBD     		pop	{r1, r2, r3, r4, r5, r6, r7, pc}
 325              	.L32:
 326              		.align	2
 327              	.L31:
 328 0084 00000000 		.word	usb_endpoint_table
 329 0088 00000000 		.word	udd_ep_in_cache_buffer
 330 008c FF3F00F0 		.word	-268419073
 332              		.section	.text.USB_Read,"ax",%progbits
 333              		.align	1
 334              		.global	USB_Read
 335              		.code	16
 336              		.thumb_func
 338              	USB_Read:
 339 0000 F8B5     		push	{r3, r4, r5, r6, r7, lr}
 340 0002 1A4E     		ldr	r6, .L38
 341 0004 051C     		mov	r5, r0
 342 0006 3378     		ldrb	r3, [r6]
 343 0008 141C     		mov	r4, r2
 344 000a 002B     		cmp	r3, #0
 345 000c 12D1     		bne	.L34
 346 000e 184B     		ldr	r3, .L38+4
 347 0010 184A     		ldr	r2, .L38+8
 348 0012 1A64     		str	r2, [r3, #64]
 349 0014 5A6C     		ldr	r2, [r3, #68]
 350 0016 920B     		lsr	r2, r2, #14
 351 0018 9203     		lsl	r2, r2, #14
 352 001a 5A64     		str	r2, [r3, #68]
 353 001c 586C     		ldr	r0, [r3, #68]
 354 001e 164A     		ldr	r2, .L38+12
 355 0020 0240     		and	r2, r0
 356 0022 5A64     		str	r2, [r3, #68]
 357 0024 A223     		mov	r3, #162
 358 0026 5B00     		lsl	r3, r3, #1
 359 0028 EA5C     		ldrb	r2, [r5, r3]
 360 002a 4020     		mov	r0, #64
 361 002c 0243     		orr	r2, r0
 362 002e EA54     		strb	r2, [r5, r3]
 363 0030 0123     		mov	r3, #1
 364 0032 3370     		strb	r3, [r6]
 365              	.L34:
 366 0034 4827     		mov	r7, #72
 367 0036 FF37     		add	r7, r7, #255
 368 0038 EA5D     		ldrb	r2, [r5, r7]
 369 003a 0123     		mov	r3, #1
 370 003c 1340     		and	r3, r2
 371 003e 12D0     		beq	.L37
 372 0040 0B4B     		ldr	r3, .L38+4
 373 0042 5A6C     		ldr	r2, [r3, #68]
 374 0044 9204     		lsl	r2, r2, #18
 375 0046 920C     		lsr	r2, r2, #18
 376 0048 A242     		cmp	r2, r4
 377 004a 02D2     		bcs	.L36
 378 004c 5C6C     		ldr	r4, [r3, #68]
 379 004e A404     		lsl	r4, r4, #18
 380 0050 A40C     		lsr	r4, r4, #18
 381              	.L36:
 382 0052 081C     		mov	r0, r1
 383 0054 221C     		mov	r2, r4
 384 0056 0749     		ldr	r1, .L38+8
 385 0058 FFF7FEFF 		bl	memcpy
 386 005c 0123     		mov	r3, #1
 387 005e EB55     		strb	r3, [r5, r7]
 388 0060 0023     		mov	r3, #0
 389 0062 3370     		strb	r3, [r6]
 390 0064 00E0     		b	.L35
 391              	.L37:
 392 0066 1C1C     		mov	r4, r3
 393              	.L35:
 394 0068 201C     		mov	r0, r4
 395              		@ sp needed
 396 006a F8BD     		pop	{r3, r4, r5, r6, r7, pc}
 397              	.L39:
 398              		.align	2
 399              	.L38:
 400 006c 00000000 		.word	.LANCHOR0
 401 0070 00000000 		.word	usb_endpoint_table
 402 0074 40000000 		.word	udd_ep_out_cache_buffer+64
 403 0078 FF3F00F0 		.word	-268419073
 405              		.section	.text.USB_Read_blocking,"ax",%progbits
 406              		.align	1
 407              		.global	USB_Read_blocking
 408              		.code	16
 409              		.thumb_func
 411              	USB_Read_blocking:
 412 0000 031C     		mov	r3, r0
 413 0002 1448     		ldr	r0, .L47
 414 0004 70B5     		push	{r4, r5, r6, lr}
 415 0006 0478     		ldrb	r4, [r0]
 416 0008 002C     		cmp	r4, #0
 417 000a 07D0     		beq	.L41
 418 000c 4624     		mov	r4, #70
 419 000e FF34     		add	r4, r4, #255
 420 0010 1D5D     		ldrb	r5, [r3, r4]
 421 0012 4026     		mov	r6, #64
 422 0014 3543     		orr	r5, r6
 423 0016 1D55     		strb	r5, [r3, r4]
 424 0018 0024     		mov	r4, #0
 425 001a 0470     		strb	r4, [r0]
 426              	.L41:
 427 001c 0E4C     		ldr	r4, .L47+4
 428 001e 9004     		lsl	r0, r2, #18
 429 0020 2164     		str	r1, [r4, #64]
 430 0022 616C     		ldr	r1, [r4, #68]
 431 0024 0009     		lsr	r0, r0, #4
 432 0026 890B     		lsr	r1, r1, #14
 433 0028 8903     		lsl	r1, r1, #14
 434 002a 6164     		str	r1, [r4, #68]
 435 002c 656C     		ldr	r5, [r4, #68]
 436 002e 0B49     		ldr	r1, .L47+8
 437 0030 2940     		and	r1, r5
 438 0032 0143     		orr	r1, r0
 439 0034 6164     		str	r1, [r4, #68]
 440 0036 A221     		mov	r1, #162
 441 0038 4900     		lsl	r1, r1, #1
 442 003a 585C     		ldrb	r0, [r3, r1]
 443 003c 4024     		mov	r4, #64
 444 003e 2043     		orr	r0, r4
 445 0040 5854     		strb	r0, [r3, r1]
 446              	.L43:
 447 0042 4821     		mov	r1, #72
 448 0044 FF31     		add	r1, r1, #255
 449 0046 5C5C     		ldrb	r4, [r3, r1]
 450 0048 0120     		mov	r0, #1
 451 004a 0442     		tst	r4, r0
 452 004c F9D0     		beq	.L43
 453 004e 5854     		strb	r0, [r3, r1]
 454              		@ sp needed
 455 0050 101C     		mov	r0, r2
 456 0052 70BD     		pop	{r4, r5, r6, pc}
 457              	.L48:
 458              		.align	2
 459              	.L47:
 460 0054 00000000 		.word	.LANCHOR0
 461 0058 00000000 		.word	usb_endpoint_table
 462 005c FF3F00F0 		.word	-268419073
 464              		.section	.text.USB_SendStall,"ax",%progbits
 465              		.align	1
 466              		.global	USB_SendStall
 467              		.code	16
 468              		.thumb_func
 470              	USB_SendStall:
 471 0000 FF30     		add	r0, r0, #255
 472 0002 8379     		ldrb	r3, [r0, #6]
 473 0004 2022     		mov	r2, #32
 474 0006 0029     		cmp	r1, #0
 475 0008 00D1     		bne	.L52
 476 000a 1022     		mov	r2, #16
 477              	.L52:
 478 000c 1343     		orr	r3, r2
 479 000e 8371     		strb	r3, [r0, #6]
 480              		@ sp needed
 481 0010 7047     		bx	lr
 483              		.section	.text.USB_SendZlp,"ax",%progbits
 484              		.align	1
 485              		.global	USB_SendZlp
 486              		.code	16
 487              		.thumb_func
 489              	USB_SendZlp:
 490 0000 084B     		ldr	r3, .L56
 491 0002 FF30     		add	r0, r0, #255
 492 0004 5A69     		ldr	r2, [r3, #20]
 493 0006 920B     		lsr	r2, r2, #14
 494 0008 9203     		lsl	r2, r2, #14
 495 000a 5A61     		str	r2, [r3, #20]
 496 000c 0223     		mov	r3, #2
 497 000e 0372     		strb	r3, [r0, #8]
 498 0010 8279     		ldrb	r2, [r0, #6]
 499 0012 8023     		mov	r3, #128
 500 0014 5B42     		neg	r3, r3
 501 0016 1343     		orr	r3, r2
 502 0018 8371     		strb	r3, [r0, #6]
 503              	.L55:
 504 001a 037A     		ldrb	r3, [r0, #8]
 505 001c 9A07     		lsl	r2, r3, #30
 506 001e FCD5     		bpl	.L55
 507              		@ sp needed
 508 0020 7047     		bx	lr
 509              	.L57:
 510 0022 C046     		.align	2
 511              	.L56:
 512 0024 00000000 		.word	usb_endpoint_table
 514              		.section	.text.USB_SetAddress,"ax",%progbits
 515              		.align	1
 516              		.global	USB_SetAddress
 517              		.code	16
 518              		.thumb_func
 520              	USB_SetAddress:
 521 0000 8023     		mov	r3, #128
 522 0002 5B42     		neg	r3, r3
 523 0004 1943     		orr	r1, r3
 524 0006 C9B2     		uxtb	r1, r1
 525 0008 8172     		strb	r1, [r0, #10]
 526              		@ sp needed
 527 000a 7047     		bx	lr
 529              		.section	.text.USB_Configure,"ax",%progbits
 530              		.align	1
 531              		.global	USB_Configure
 532              		.code	16
 533              		.thumb_func
 535              	USB_Configure:
 536 0000 70B5     		push	{r4, r5, r6, lr}
 537 0002 A023     		mov	r3, #160
 538 0004 0322     		mov	r2, #3
 539 0006 5B00     		lsl	r3, r3, #1
 540 0008 C254     		strb	r2, [r0, r3]
 541 000a 134B     		ldr	r3, .L60
 542 000c 134A     		ldr	r2, .L60+4
 543 000e 5C6C     		ldr	r4, [r3, #68]
 544 0010 C021     		mov	r1, #192
 545 0012 1440     		and	r4, r2
 546 0014 8905     		lsl	r1, r1, #22
 547 0016 0C43     		orr	r4, r1
 548 0018 4625     		mov	r5, #70
 549 001a 5C64     		str	r4, [r3, #68]
 550 001c FF35     		add	r5, r5, #255
 551 001e 4024     		mov	r4, #64
 552 0020 4455     		strb	r4, [r0, r5]
 553 0022 0F4D     		ldr	r5, .L60+8
 554 0024 3026     		mov	r6, #48
 555 0026 1D64     		str	r5, [r3, #64]
 556 0028 9025     		mov	r5, #144
 557 002a 6D00     		lsl	r5, r5, #1
 558 002c 4655     		strb	r6, [r0, r5]
 559 002e 5D6B     		ldr	r5, [r3, #52]
 560              		@ sp needed
 561 0030 1540     		and	r5, r2
 562 0032 2943     		orr	r1, r5
 563 0034 9225     		mov	r5, #146
 564 0036 5963     		str	r1, [r3, #52]
 565 0038 6D00     		lsl	r5, r5, #1
 566 003a 8021     		mov	r1, #128
 567 003c 4155     		strb	r1, [r0, r5]
 568 003e 094D     		ldr	r5, .L60+12
 569 0040 1D63     		str	r5, [r3, #48]
 570 0042 B025     		mov	r5, #176
 571 0044 6D00     		lsl	r5, r5, #1
 572 0046 4455     		strb	r4, [r0, r5]
 573 0048 5C6F     		ldr	r4, [r3, #116]
 574 004a 2240     		and	r2, r4
 575 004c 5A67     		str	r2, [r3, #116]
 576 004e B223     		mov	r3, #178
 577 0050 5B00     		lsl	r3, r3, #1
 578 0052 C154     		strb	r1, [r0, r3]
 579 0054 70BD     		pop	{r4, r5, r6, pc}
 580              	.L61:
 581 0056 C046     		.align	2
 582              	.L60:
 583 0058 00000000 		.word	usb_endpoint_table
 584 005c FFFFFF8F 		.word	-1879048193
 585 0060 40000000 		.word	udd_ep_out_cache_buffer+64
 586 0064 40000000 		.word	udd_ep_in_cache_buffer+64
 588              		.comm	udd_ep_in_cache_buffer,128,4
 589              		.comm	udd_ep_out_cache_buffer,128,4
 590              		.comm	usb_endpoint_table,128,4
 591              		.section	.bss.read_job,"aw",%nobits
 592              		.set	.LANCHOR0,. + 0
 595              	read_job:
 596 0000 00       		.space	1
 597              		.ident	"GCC: (GNU Tools for ARM Embedded Processors) 4.8.3 20140228 (release) [ARM/embedded-4_8-br
DEFINED SYMBOLS
                            *ABS*:00000000 board_driver_usb.c
C:\Users\pvalleau\AppData\Local\Temp\ccA8mN85.s:15     .text.USB_IsConfigured:00000000 $t
C:\Users\pvalleau\AppData\Local\Temp\ccA8mN85.s:20     .text.USB_IsConfigured:00000000 USB_IsConfigured
C:\Users\pvalleau\AppData\Local\Temp\ccA8mN85.s:82     .text.USB_IsConfigured:00000070 $d
                            *COM*:00000080 usb_endpoint_table
                            *COM*:00000080 udd_ep_out_cache_buffer
                            *COM*:00000080 udd_ep_in_cache_buffer
C:\Users\pvalleau\AppData\Local\Temp\ccA8mN85.s:89     .text.USB_Open:00000000 $t
C:\Users\pvalleau\AppData\Local\Temp\ccA8mN85.s:94     .text.USB_Open:00000000 USB_Open
C:\Users\pvalleau\AppData\Local\Temp\ccA8mN85.s:110    .text.USB_Open:00000018 $d
C:\Users\pvalleau\AppData\Local\Temp\ccA8mN85.s:113    .text.USB_Init:00000000 $t
C:\Users\pvalleau\AppData\Local\Temp\ccA8mN85.s:118    .text.USB_Init:00000000 USB_Init
C:\Users\pvalleau\AppData\Local\Temp\ccA8mN85.s:237    .text.USB_Init:000000dc $d
C:\Users\pvalleau\AppData\Local\Temp\ccA8mN85.s:250    .text.USB_Write:00000000 $t
C:\Users\pvalleau\AppData\Local\Temp\ccA8mN85.s:255    .text.USB_Write:00000000 USB_Write
C:\Users\pvalleau\AppData\Local\Temp\ccA8mN85.s:328    .text.USB_Write:00000084 $d
C:\Users\pvalleau\AppData\Local\Temp\ccA8mN85.s:333    .text.USB_Read:00000000 $t
C:\Users\pvalleau\AppData\Local\Temp\ccA8mN85.s:338    .text.USB_Read:00000000 USB_Read
C:\Users\pvalleau\AppData\Local\Temp\ccA8mN85.s:400    .text.USB_Read:0000006c $d
C:\Users\pvalleau\AppData\Local\Temp\ccA8mN85.s:406    .text.USB_Read_blocking:00000000 $t
C:\Users\pvalleau\AppData\Local\Temp\ccA8mN85.s:411    .text.USB_Read_blocking:00000000 USB_Read_blocking
C:\Users\pvalleau\AppData\Local\Temp\ccA8mN85.s:460    .text.USB_Read_blocking:00000054 $d
C:\Users\pvalleau\AppData\Local\Temp\ccA8mN85.s:465    .text.USB_SendStall:00000000 $t
C:\Users\pvalleau\AppData\Local\Temp\ccA8mN85.s:470    .text.USB_SendStall:00000000 USB_SendStall
C:\Users\pvalleau\AppData\Local\Temp\ccA8mN85.s:484    .text.USB_SendZlp:00000000 $t
C:\Users\pvalleau\AppData\Local\Temp\ccA8mN85.s:489    .text.USB_SendZlp:00000000 USB_SendZlp
C:\Users\pvalleau\AppData\Local\Temp\ccA8mN85.s:512    .text.USB_SendZlp:00000024 $d
C:\Users\pvalleau\AppData\Local\Temp\ccA8mN85.s:515    .text.USB_SetAddress:00000000 $t
C:\Users\pvalleau\AppData\Local\Temp\ccA8mN85.s:520    .text.USB_SetAddress:00000000 USB_SetAddress
C:\Users\pvalleau\AppData\Local\Temp\ccA8mN85.s:530    .text.USB_Configure:00000000 $t
C:\Users\pvalleau\AppData\Local\Temp\ccA8mN85.s:535    .text.USB_Configure:00000000 USB_Configure
C:\Users\pvalleau\AppData\Local\Temp\ccA8mN85.s:583    .text.USB_Configure:00000058 $d
C:\Users\pvalleau\AppData\Local\Temp\ccA8mN85.s:595    .bss.read_job:00000000 read_job
C:\Users\pvalleau\AppData\Local\Temp\ccA8mN85.s:596    .bss.read_job:00000000 $d

UNDEFINED SYMBOLS
sam_ba_usb_CDC_Enumerate
memset
memcpy
