   1              		.cpu cortex-m0plus
   2              		.fpu softvfp
   3              		.eabi_attribute 20, 1
   4              		.eabi_attribute 21, 1
   5              		.eabi_attribute 23, 3
   6              		.eabi_attribute 24, 1
   7              		.eabi_attribute 25, 1
   8              		.eabi_attribute 26, 1
   9              		.eabi_attribute 30, 4
  10              		.eabi_attribute 34, 0
  11              		.eabi_attribute 18, 4
  12              		.code	16
  13              		.file	"sam_ba_monitor.c"
  14              		.section	.text.sam_ba_putdata.isra.0,"ax",%progbits
  15              		.align	1
  16              		.code	16
  17              		.thumb_func
  19              	sam_ba_putdata.isra.0:
  20 0000 08B5     		push	{r3, lr}
  21 0002 031C     		mov	r3, r0
  22 0004 081C     		mov	r0, r1
  23 0006 111C     		mov	r1, r2
  24 0008 9847     		blx	r3
  25 000a 024B     		ldr	r3, .L2
  26 000c 6422     		mov	r2, #100
  27 000e 1A80     		strh	r2, [r3]
  28              		@ sp needed
  29 0010 08BD     		pop	{r3, pc}
  30              	.L3:
  31 0012 C046     		.align	2
  32              	.L2:
  33 0014 00000000 		.word	.LANCHOR0
  35              		.section	.text.sam_ba_monitor_init,"ax",%progbits
  36              		.align	1
  37              		.global	sam_ba_monitor_init
  38              		.code	16
  39              		.thumb_func
  41              	sam_ba_monitor_init:
  42 0000 0128     		cmp	r0, #1
  43 0002 04D1     		bne	.L4
  44 0004 024B     		ldr	r3, .L7
  45 0006 034A     		ldr	r2, .L7+4
  46 0008 1A60     		str	r2, [r3]
  47 000a 034B     		ldr	r3, .L7+8
  48 000c 1870     		strb	r0, [r3]
  49              	.L4:
  50              		@ sp needed
  51 000e 7047     		bx	lr
  52              	.L8:
  53              		.align	2
  54              	.L7:
  55 0010 00000000 		.word	ptr_monitor_if
  56 0014 00000000 		.word	.LANCHOR1
  57 0018 00000000 		.word	.LANCHOR2
  59              		.section	.text.sam_ba_putdata_term,"ax",%progbits
  60              		.align	1
  61              		.global	sam_ba_putdata_term
  62              		.code	16
  63              		.thumb_func
  65              	sam_ba_putdata_term:
  66 0000 30B5     		push	{r4, r5, lr}
  67 0002 0A1C     		mov	r2, r1
  68 0004 1C49     		ldr	r1, .L22
  69 0006 85B0     		sub	sp, sp, #20
  70 0008 0978     		ldrb	r1, [r1]
  71 000a 031C     		mov	r3, r0
  72 000c 0029     		cmp	r1, #0
  73 000e 2AD0     		beq	.L10
  74 0010 042A     		cmp	r2, #4
  75 0012 01D1     		bne	.L11
  76 0014 0068     		ldr	r0, [r0]
  77 0016 04E0     		b	.L12
  78              	.L11:
  79 0018 022A     		cmp	r2, #2
  80 001a 01D1     		bne	.L13
  81 001c 0088     		ldrh	r0, [r0]
  82 001e 00E0     		b	.L12
  83              	.L13:
  84 0020 0078     		ldrb	r0, [r0]
  85              	.L12:
  86 0022 5200     		lsl	r2, r2, #1
  87 0024 04A9     		add	r1, sp, #16
  88 0026 8B18     		add	r3, r1, r2
  89 0028 0B3B     		sub	r3, r3, #11
  90 002a 9C1A     		sub	r4, r3, r2
  91              	.L14:
  92 002c A342     		cmp	r3, r4
  93 002e 0BD0     		beq	.L21
  94 0030 0F21     		mov	r1, #15
  95 0032 0140     		and	r1, r0
  96 0034 0929     		cmp	r1, #9
  97 0036 02D8     		bhi	.L15
  98 0038 3025     		mov	r5, #48
  99 003a 2943     		orr	r1, r5
 100 003c 00E0     		b	.L19
 101              	.L15:
 102 003e 3731     		add	r1, r1, #55
 103              	.L19:
 104 0040 1970     		strb	r1, [r3]
 105 0042 0009     		lsr	r0, r0, #4
 106 0044 013B     		sub	r3, r3, #1
 107 0046 F1E7     		b	.L14
 108              	.L21:
 109 0048 01A9     		add	r1, sp, #4
 110 004a 3023     		mov	r3, #48
 111 004c 0B70     		strb	r3, [r1]
 112 004e 7823     		mov	r3, #120
 113 0050 4B70     		strb	r3, [r1, #1]
 114 0052 0A20     		mov	r0, #10
 115 0054 8B18     		add	r3, r1, r2
 116 0056 9870     		strb	r0, [r3, #2]
 117 0058 0D20     		mov	r0, #13
 118 005a D870     		strb	r0, [r3, #3]
 119 005c 074B     		ldr	r3, .L22+4
 120 005e 0432     		add	r2, r2, #4
 121 0060 1B68     		ldr	r3, [r3]
 122 0062 D868     		ldr	r0, [r3, #12]
 123 0064 03E0     		b	.L20
 124              	.L10:
 125 0066 0549     		ldr	r1, .L22+4
 126 0068 0968     		ldr	r1, [r1]
 127 006a C868     		ldr	r0, [r1, #12]
 128 006c 191C     		mov	r1, r3
 129              	.L20:
 130 006e FFF7FEFF 		bl	sam_ba_putdata.isra.0
 131 0072 05B0     		add	sp, sp, #20
 132              		@ sp needed
 133 0074 30BD     		pop	{r4, r5, pc}
 134              	.L23:
 135 0076 C046     		.align	2
 136              	.L22:
 137 0078 00000000 		.word	.LANCHOR3
 138 007c 00000000 		.word	ptr_monitor_if
 140              		.section	.text.call_applet,"ax",%progbits
 141              		.align	1
 142              		.global	call_applet
 143              		.code	16
 144              		.thumb_func
 146              	call_applet:
 147              	@ 71 "C:\Users\pvalleau\AppData\Local/Arduino15/packages/arduino/tools/CMSIS/4.5.0/CMSIS/Include/cm
 148 0000 72B6     		cpsid i
 149              	@ 0 "" 2
 150              	@ 177 "C:\Users\pvalleau\AppData\Local/Arduino15/packages/arduino/tools/CMSIS/4.5.0/CMSIS/Include/c
 151 0002 EFF30883 		MRS r3, msp
 152              	
 153              	@ 0 "" 2
 154              		.code	16
 155 0006 044A     		ldr	r2, .L25
 156 0008 1360     		str	r3, [r2]
 157 000a 0368     		ldr	r3, [r0]
 158              	@ 190 "C:\Users\pvalleau\AppData\Local/Arduino15/packages/arduino/tools/CMSIS/4.5.0/CMSIS/Include/c
 159 000c 83F30888 		MSR msp, r3
 160              	
 161              	@ 0 "" 2
 162              		.code	16
 163 0010 4368     		ldr	r3, [r0, #4]
 164              	@ 245 "sam_ba_monitor.c" 1
 165 0012 1847     		bx r3
 166              	@ 0 "" 2
 167              		.code	16
 168              		@ sp needed
 169 0014 7047     		bx	lr
 170              	.L26:
 171 0016 C046     		.align	2
 172              	.L25:
 173 0018 00000000 		.word	sp
 175              		.section	.text.sam_ba_monitor_sys_tick,"ax",%progbits
 176              		.align	1
 177              		.global	sam_ba_monitor_sys_tick
 178              		.code	16
 179              		.thumb_func
 181              	sam_ba_monitor_sys_tick:
 182 0000 084B     		ldr	r3, .L36
 183 0002 1A88     		ldrh	r2, [r3]
 184 0004 002A     		cmp	r2, #0
 185 0006 03D0     		beq	.L28
 186 0008 1A88     		ldrh	r2, [r3]
 187 000a 013A     		sub	r2, r2, #1
 188 000c 92B2     		uxth	r2, r2
 189 000e 1A80     		strh	r2, [r3]
 190              	.L28:
 191 0010 054B     		ldr	r3, .L36+4
 192 0012 1A88     		ldrh	r2, [r3]
 193 0014 002A     		cmp	r2, #0
 194 0016 03D0     		beq	.L27
 195 0018 1A88     		ldrh	r2, [r3]
 196 001a 013A     		sub	r2, r2, #1
 197 001c 92B2     		uxth	r2, r2
 198 001e 1A80     		strh	r2, [r3]
 199              	.L27:
 200              		@ sp needed
 201 0020 7047     		bx	lr
 202              	.L37:
 203 0022 C046     		.align	2
 204              	.L36:
 205 0024 00000000 		.word	.LANCHOR0
 206 0028 00000000 		.word	.LANCHOR4
 208              		.section	.text.sam_ba_monitor_run,"ax",%progbits
 209              		.align	1
 210              		.global	sam_ba_monitor_run
 211              		.code	16
 212              		.thumb_func
 214              	sam_ba_monitor_run:
 215 0000 F0B5     		push	{r4, r5, r6, r7, lr}
 216 0002 91B0     		sub	sp, sp, #68
 217 0004 08A9     		add	r1, sp, #32
 218 0006 CC4A     		ldr	r2, .L127
 219 0008 0B1C     		mov	r3, r1
 220 000a 31CA     		ldmia	r2!, {r0, r4, r5}
 221 000c 31C3     		stmia	r3!, {r0, r4, r5}
 222 000e 51CA     		ldmia	r2!, {r0, r4, r6}
 223 0010 51C3     		stmia	r3!, {r0, r4, r6}
 224 0012 60CA     		ldmia	r2!, {r5, r6}
 225 0014 60C3     		stmia	r3!, {r5, r6}
 226 0016 C94B     		ldr	r3, .L127+4
 227 0018 C948     		ldr	r0, .L127+8
 228 001a 9A68     		ldr	r2, [r3, #8]
 229 001c 7A25     		mov	r5, #122
 230 001e 5203     		lsl	r2, r2, #13
 231 0020 520F     		lsr	r2, r2, #29
 232 0022 9200     		lsl	r2, r2, #2
 233 0024 5258     		ldr	r2, [r2, r1]
 234 0026 C749     		ldr	r1, .L127+12
 235 0028 0260     		str	r2, [r0]
 236 002a 9C68     		ldr	r4, [r3, #8]
 237 002c A4B2     		uxth	r4, r4
 238 002e 6243     		mul	r2, r4
 239 0030 0C60     		str	r4, [r1]
 240 0032 C549     		ldr	r1, .L127+16
 241 0034 0024     		mov	r4, #0
 242 0036 0A60     		str	r2, [r1]
 243 0038 C44A     		ldr	r2, .L127+20
 244 003a 1460     		str	r4, [r2]
 245 003c C44C     		ldr	r4, .L127+24
 246 003e 2570     		strb	r5, [r4]
 247              	.L101:
 248 0040 C44C     		ldr	r4, .L127+28
 249 0042 C54D     		ldr	r5, .L127+32
 250 0044 2368     		ldr	r3, [r4]
 251 0046 281C     		mov	r0, r5
 252 0048 1B69     		ldr	r3, [r3, #16]
 253 004a 4021     		mov	r1, #64
 254 004c 9847     		blx	r3
 255 004e 0028     		cmp	r0, #0
 256 0050 02D0     		beq	.L39
 257 0052 C24B     		ldr	r3, .L127+36
 258 0054 6422     		mov	r2, #100
 259 0056 1A80     		strh	r2, [r3]
 260              	.L39:
 261 0058 C14B     		ldr	r3, .L127+40
 262 005a 0022     		mov	r2, #0
 263 005c 1860     		str	r0, [r3]
 264 005e C14B     		ldr	r3, .L127+44
 265 0060 1D60     		str	r5, [r3]
 266 0062 C14B     		ldr	r3, .L127+48
 267              	.L120:
 268 0064 C04D     		ldr	r5, .L127+48
 269 0066 BE4F     		ldr	r7, .L127+40
 270 0068 1A60     		str	r2, [r3]
 271 006a 2A68     		ldr	r2, [r5]
 272 006c 3B68     		ldr	r3, [r7]
 273 006e 9A42     		cmp	r2, r3
 274 0070 E6D2     		bcs	.L101
 275 0072 BC4B     		ldr	r3, .L127+44
 276 0074 1B68     		ldr	r3, [r3]
 277 0076 1A78     		ldrb	r2, [r3]
 278 0078 FF2A     		cmp	r2, #255
 279 007a 00D1     		bne	.LCB294
 280 007c 14E2     		b	.L42	@long jump
 281              	.LCB294:
 282 007e 232A     		cmp	r2, #35
 283 0080 00D0     		beq	.LCB296
 284 0082 EBE1     		b	.L43	@long jump
 285              	.LCB296:
 286 0084 B94E     		ldr	r6, .L127+52
 287 0086 3378     		ldrb	r3, [r6]
 288 0088 002B     		cmp	r3, #0
 289 008a 06D0     		beq	.L44
 290 008c B14B     		ldr	r3, .L127+28
 291 008e B849     		ldr	r1, .L127+56
 292 0090 1B68     		ldr	r3, [r3]
 293 0092 0222     		mov	r2, #2
 294 0094 D868     		ldr	r0, [r3, #12]
 295 0096 FFF7FEFF 		bl	sam_ba_putdata.isra.0
 296              	.L44:
 297 009a AD4B     		ldr	r3, .L127+24
 298 009c 1B78     		ldrb	r3, [r3]
 299 009e 532B     		cmp	r3, #83
 300 00a0 3CD1     		bne	.L45
 301 00a2 3B68     		ldr	r3, [r7]
 302 00a4 2A68     		ldr	r2, [r5]
 303 00a6 9342     		cmp	r3, r2
 304 00a8 1ED9     		bls	.L46
 305 00aa AE48     		ldr	r0, .L127+44
 306 00ac 0132     		add	r2, r2, #1
 307 00ae 2A60     		str	r2, [r5]
 308 00b0 9A1A     		sub	r2, r3, r2
 309 00b2 B04B     		ldr	r3, .L127+60
 310 00b4 0168     		ldr	r1, [r0]
 311 00b6 1B68     		ldr	r3, [r3]
 312 00b8 0131     		add	r1, r1, #1
 313 00ba 0160     		str	r1, [r0]
 314 00bc AE4E     		ldr	r6, .L127+64
 315 00be 9A42     		cmp	r2, r3
 316 00c0 01D2     		bcs	.L47
 317 00c2 3260     		str	r2, [r6]
 318 00c4 00E0     		b	.L48
 319              	.L47:
 320 00c6 3360     		str	r3, [r6]
 321              	.L48:
 322 00c8 A048     		ldr	r0, .L127+20
 323 00ca 3268     		ldr	r2, [r6]
 324 00cc 0068     		ldr	r0, [r0]
 325 00ce 0490     		str	r0, [sp, #16]
 326 00d0 FFF7FEFF 		bl	memcpy
 327 00d4 3368     		ldr	r3, [r6]
 328 00d6 2968     		ldr	r1, [r5]
 329 00d8 5A18     		add	r2, r3, r1
 330 00da 2A60     		str	r2, [r5]
 331 00dc A14A     		ldr	r2, .L127+44
 332 00de 1668     		ldr	r6, [r2]
 333 00e0 F118     		add	r1, r6, r3
 334 00e2 1160     		str	r1, [r2]
 335 00e4 A54A     		ldr	r2, .L127+68
 336 00e6 1370     		strb	r3, [r2]
 337              	.L46:
 338 00e8 2B68     		ldr	r3, [r5]
 339 00ea 013B     		sub	r3, r3, #1
 340 00ec 2B60     		str	r3, [r5]
 341 00ee 9D4B     		ldr	r3, .L127+44
 342 00f0 1A68     		ldr	r2, [r3]
 343 00f2 013A     		sub	r2, r2, #1
 344 00f4 1A60     		str	r2, [r3]
 345 00f6 A14B     		ldr	r3, .L127+68
 346 00f8 9E4A     		ldr	r2, .L127+60
 347 00fa 1B78     		ldrb	r3, [r3]
 348 00fc 1168     		ldr	r1, [r2]
 349 00fe 8B42     		cmp	r3, r1
 350 0100 0AD2     		bcs	.L50
 351 0102 2268     		ldr	r2, [r4]
 352 0104 9148     		ldr	r0, .L127+20
 353 0106 C91A     		sub	r1, r1, r3
 354 0108 0068     		ldr	r0, [r0]
 355 010a 9269     		ldr	r2, [r2, #24]
 356 010c 9047     		blx	r2
 357 010e 0028     		cmp	r0, #0
 358 0110 02D0     		beq	.L50
 359 0112 924B     		ldr	r3, .L127+36
 360 0114 6422     		mov	r2, #100
 361 0116 1A80     		strh	r2, [r3]
 362              	.L50:
 363              	@ 322 "sam_ba_monitor.c" 1
 364 0118 C046     		nop
 365              	@ 0 "" 2
 366              		.code	16
 367 011a 8DE1     		b	.L52
 368              	.L45:
 369 011c 522B     		cmp	r3, #82
 370 011e 0AD1     		bne	.L53
 371 0120 8A48     		ldr	r0, .L127+20
 372 0122 944A     		ldr	r2, .L127+60
 373 0124 2368     		ldr	r3, [r4]
 374 0126 0068     		ldr	r0, [r0]
 375 0128 1168     		ldr	r1, [r2]
 376 012a 5B69     		ldr	r3, [r3, #20]
 377 012c 0390     		str	r0, [sp, #12]
 378 012e 9847     		blx	r3
 379 0130 6422     		mov	r2, #100
 380 0132 934B     		ldr	r3, .L127+72
 381 0134 0DE0     		b	.L114
 382              	.L53:
 383 0136 4F2B     		cmp	r3, #79
 384 0138 05D1     		bne	.L54
 385 013a 844B     		ldr	r3, .L127+20
 386 013c 8D4A     		ldr	r2, .L127+60
 387 013e 1B68     		ldr	r3, [r3]
 388 0140 1268     		ldr	r2, [r2]
 389 0142 1A70     		strb	r2, [r3]
 390 0144 78E1     		b	.L52
 391              	.L54:
 392 0146 482B     		cmp	r3, #72
 393 0148 05D1     		bne	.L55
 394 014a 804B     		ldr	r3, .L127+20
 395 014c 894A     		ldr	r2, .L127+60
 396 014e 1B68     		ldr	r3, [r3]
 397 0150 1268     		ldr	r2, [r2]
 398              	.L114:
 399 0152 1A80     		strh	r2, [r3]
 400 0154 70E1     		b	.L52
 401              	.L55:
 402 0156 572B     		cmp	r3, #87
 403 0158 05D1     		bne	.L56
 404 015a 7C4B     		ldr	r3, .L127+20
 405 015c 854A     		ldr	r2, .L127+60
 406 015e 1B68     		ldr	r3, [r3]
 407 0160 1268     		ldr	r2, [r2]
 408 0162 1A60     		str	r2, [r3]
 409 0164 68E1     		b	.L52
 410              	.L56:
 411 0166 6F2B     		cmp	r3, #111
 412 0168 03D1     		bne	.L57
 413 016a 784B     		ldr	r3, .L127+20
 414 016c 0121     		mov	r1, #1
 415 016e 1868     		ldr	r0, [r3]
 416 0170 07E0     		b	.L116
 417              	.L57:
 418 0172 682B     		cmp	r3, #104
 419 0174 08D1     		bne	.L58
 420 0176 754B     		ldr	r3, .L127+20
 421 0178 7E48     		ldr	r0, .L127+60
 422 017a 1B68     		ldr	r3, [r3]
 423 017c 0221     		mov	r1, #2
 424 017e 1B88     		ldrh	r3, [r3]
 425 0180 0360     		str	r3, [r0]
 426              	.L116:
 427 0182 FFF7FEFF 		bl	sam_ba_putdata_term
 428 0186 57E1     		b	.L52
 429              	.L58:
 430 0188 772B     		cmp	r3, #119
 431 018a 06D1     		bne	.L59
 432 018c 6F4B     		ldr	r3, .L127+20
 433 018e 7948     		ldr	r0, .L127+60
 434 0190 1B68     		ldr	r3, [r3]
 435 0192 0421     		mov	r1, #4
 436 0194 1B68     		ldr	r3, [r3]
 437 0196 0360     		str	r3, [r0]
 438 0198 F3E7     		b	.L116
 439              	.L59:
 440 019a 472B     		cmp	r3, #71
 441 019c 13D1     		bne	.L60
 442 019e 754B     		ldr	r3, .L127+60
 443 01a0 1868     		ldr	r0, [r3]
 444 01a2 FFF7FEFF 		bl	call_applet
 445 01a6 774B     		ldr	r3, .L127+76
 446 01a8 1B68     		ldr	r3, [r3]
 447              	@ 190 "C:\Users\pvalleau\AppData\Local/Arduino15/packages/arduino/tools/CMSIS/4.5.0/CMSIS/Include/c
 448 01aa 83F30888 		MSR msp, r3
 449              	
 450              	@ 0 "" 2
 451              	@ 60 "C:\Users\pvalleau\AppData\Local/Arduino15/packages/arduino/tools/CMSIS/4.5.0/CMSIS/Include/cm
 452 01ae 62B6     		cpsie i
 453              	@ 0 "" 2
 454              		.code	16
 455 01b0 754B     		ldr	r3, .L127+80
 456 01b2 1B78     		ldrb	r3, [r3]
 457 01b4 002B     		cmp	r3, #0
 458 01b6 00D1     		bne	.LCB493
 459 01b8 3EE1     		b	.L52	@long jump
 460              	.LCB493:
 461 01ba 664B     		ldr	r3, .L127+28
 462 01bc 0620     		mov	r0, #6
 463 01be 1B68     		ldr	r3, [r3]
 464 01c0 1B68     		ldr	r3, [r3]
 465 01c2 9847     		blx	r3
 466 01c4 38E1     		b	.L52
 467              	.L60:
 468 01c6 542B     		cmp	r3, #84
 469 01c8 04D1     		bne	.L62
 470 01ca 0123     		mov	r3, #1
 471 01cc 3370     		strb	r3, [r6]
 472 01ce 614B     		ldr	r3, .L127+28
 473 01d0 1B68     		ldr	r3, [r3]
 474 01d2 64E0     		b	.L121
 475              	.L62:
 476 01d4 4E2B     		cmp	r3, #78
 477 01d6 0CD1     		bne	.L63
 478 01d8 3378     		ldrb	r3, [r6]
 479 01da 002B     		cmp	r3, #0
 480 01dc 06D1     		bne	.L64
 481 01de 5D4B     		ldr	r3, .L127+28
 482 01e0 6349     		ldr	r1, .L127+56
 483 01e2 1B68     		ldr	r3, [r3]
 484 01e4 0222     		mov	r2, #2
 485 01e6 D868     		ldr	r0, [r3, #12]
 486 01e8 FFF7FEFF 		bl	sam_ba_putdata.isra.0
 487              	.L64:
 488 01ec 0023     		mov	r3, #0
 489 01ee 3370     		strb	r3, [r6]
 490 01f0 22E1     		b	.L52
 491              	.L63:
 492 01f2 562B     		cmp	r3, #86
 493 01f4 57D1     		bne	.L65
 494 01f6 2368     		ldr	r3, [r4]
 495 01f8 6449     		ldr	r1, .L127+84
 496 01fa D868     		ldr	r0, [r3, #12]
 497 01fc 0122     		mov	r2, #1
 498 01fe FFF7FEFF 		bl	sam_ba_putdata.isra.0
 499 0202 2368     		ldr	r3, [r4]
 500 0204 6249     		ldr	r1, .L127+88
 501 0206 D868     		ldr	r0, [r3, #12]
 502 0208 0322     		mov	r2, #3
 503 020a FFF7FEFF 		bl	sam_ba_putdata.isra.0
 504 020e 614D     		ldr	r5, .L127+92
 505 0210 2368     		ldr	r3, [r4]
 506 0212 291C     		mov	r1, r5
 507 0214 D868     		ldr	r0, [r3, #12]
 508 0216 0122     		mov	r2, #1
 509 0218 FFF7FEFF 		bl	sam_ba_putdata.isra.0
 510 021c 2368     		ldr	r3, [r4]
 511 021e 5E49     		ldr	r1, .L127+96
 512 0220 D868     		ldr	r0, [r3, #12]
 513 0222 0D22     		mov	r2, #13
 514 0224 FFF7FEFF 		bl	sam_ba_putdata.isra.0
 515 0228 2368     		ldr	r3, [r4]
 516 022a 291C     		mov	r1, r5
 517 022c D868     		ldr	r0, [r3, #12]
 518 022e 0122     		mov	r2, #1
 519 0230 FFF7FEFF 		bl	sam_ba_putdata.isra.0
 520 0234 4B4F     		ldr	r7, .L127+44
 521 0236 4C4D     		ldr	r5, .L127+48
 522 0238 5849     		ldr	r1, .L127+100
 523 023a 0023     		mov	r3, #0
 524 023c 3960     		str	r1, [r7]
 525 023e 2B60     		str	r3, [r5]
 526 0240 3A1C     		mov	r2, r7
 527 0242 281C     		mov	r0, r5
 528              	.L66:
 529 0244 1368     		ldr	r3, [r2]
 530 0246 5E1C     		add	r6, r3, #1
 531 0248 1660     		str	r6, [r2]
 532 024a 1B78     		ldrb	r3, [r3]
 533 024c 0593     		str	r3, [sp, #20]
 534 024e 002B     		cmp	r3, #0
 535 0250 03D0     		beq	.L123
 536 0252 0368     		ldr	r3, [r0]
 537 0254 0133     		add	r3, r3, #1
 538 0256 0360     		str	r3, [r0]
 539 0258 F4E7     		b	.L66
 540              	.L123:
 541 025a 3E4E     		ldr	r6, .L127+28
 542 025c 2A68     		ldr	r2, [r5]
 543 025e 3368     		ldr	r3, [r6]
 544 0260 D868     		ldr	r0, [r3, #12]
 545 0262 FFF7FEFF 		bl	sam_ba_putdata.isra.0
 546 0266 3368     		ldr	r3, [r6]
 547 0268 4A49     		ldr	r1, .L127+92
 548 026a D868     		ldr	r0, [r3, #12]
 549 026c 0122     		mov	r2, #1
 550 026e FFF7FEFF 		bl	sam_ba_putdata.isra.0
 551 0272 0599     		ldr	r1, [sp, #20]
 552 0274 2960     		str	r1, [r5]
 553 0276 4A49     		ldr	r1, .L127+104
 554 0278 3960     		str	r1, [r7]
 555              	.L68:
 556 027a 3A4A     		ldr	r2, .L127+44
 557 027c 1368     		ldr	r3, [r2]
 558 027e 581C     		add	r0, r3, #1
 559 0280 1060     		str	r0, [r2]
 560 0282 1B78     		ldrb	r3, [r3]
 561 0284 002B     		cmp	r3, #0
 562 0286 04D0     		beq	.L124
 563 0288 374B     		ldr	r3, .L127+48
 564 028a 1A68     		ldr	r2, [r3]
 565 028c 0132     		add	r2, r2, #1
 566 028e 1A60     		str	r2, [r3]
 567 0290 F3E7     		b	.L68
 568              	.L124:
 569 0292 3368     		ldr	r3, [r6]
 570 0294 2A68     		ldr	r2, [r5]
 571 0296 D868     		ldr	r0, [r3, #12]
 572 0298 FFF7FEFF 		bl	sam_ba_putdata.isra.0
 573 029c 3368     		ldr	r3, [r6]
 574              	.L121:
 575 029e D868     		ldr	r0, [r3, #12]
 576 02a0 3349     		ldr	r1, .L127+56
 577 02a2 0222     		mov	r2, #2
 578 02a4 C6E0     		b	.L117
 579              	.L65:
 580 02a6 334A     		ldr	r2, .L127+60
 581 02a8 582B     		cmp	r3, #88
 582 02aa 17D1     		bne	.L70
 583 02ac 244E     		ldr	r6, .L127+8
 584 02ae 264D     		ldr	r5, .L127+16
 585 02b0 3668     		ldr	r6, [r6]
 586 02b2 1368     		ldr	r3, [r2]
 587 02b4 2A68     		ldr	r2, [r5]
 588 02b6 B100     		lsl	r1, r6, #2
 589              	.L71:
 590 02b8 9342     		cmp	r3, r2
 591 02ba 0AD2     		bcs	.L125
 592 02bc 1F4D     		ldr	r5, .L127+4
 593 02be 5808     		lsr	r0, r3, #1
 594 02c0 E861     		str	r0, [r5, #28]
 595 02c2 3848     		ldr	r0, .L127+108
 596 02c4 2880     		strh	r0, [r5]
 597              	.L73:
 598 02c6 1D4D     		ldr	r5, .L127+4
 599 02c8 287D     		ldrb	r0, [r5, #20]
 600 02ca C607     		lsl	r6, r0, #31
 601 02cc FBD5     		bpl	.L73
 602 02ce 5B18     		add	r3, r3, r1
 603 02d0 F2E7     		b	.L71
 604              	.L125:
 605 02d2 204B     		ldr	r3, .L127+28
 606 02d4 3449     		ldr	r1, .L127+112
 607 02d6 1B68     		ldr	r3, [r3]
 608 02d8 D868     		ldr	r0, [r3, #12]
 609 02da AAE0     		b	.L115
 610              	.L70:
 611 02dc 592B     		cmp	r3, #89
 612 02de 79D1     		bne	.L75
 613 02e0 1268     		ldr	r2, [r2]
 614 02e2 1A4B     		ldr	r3, .L127+20
 615 02e4 3149     		ldr	r1, .L127+116
 616 02e6 002A     		cmp	r2, #0
 617 02e8 02D1     		bne	.L76
 618 02ea 1B68     		ldr	r3, [r3]
 619 02ec 0B60     		str	r3, [r1]
 620 02ee 6CE0     		b	.L77
 621              	.L76:
 622 02f0 124D     		ldr	r5, .L127+4
 623 02f2 0868     		ldr	r0, [r1]
 624 02f4 1968     		ldr	r1, [r3]
 625 02f6 6B68     		ldr	r3, [r5, #4]
 626 02f8 104E     		ldr	r6, .L127+4
 627 02fa 8025     		mov	r5, #128
 628 02fc AB43     		bic	r3, r5
 629 02fe 9208     		lsr	r2, r2, #2
 630 0300 7360     		str	r3, [r6, #4]
 631              	.L78:
 632 0302 002A     		cmp	r2, #0
 633 0304 61D0     		beq	.L77
 634 0306 2A4B     		ldr	r3, .L127+120
 635 0308 0C4D     		ldr	r5, .L127+4
 636 030a 2B80     		strh	r3, [r5]
 637              	.L81:
 638 030c 0B4E     		ldr	r6, .L127+4
 639 030e 337D     		ldrb	r3, [r6, #20]
 640 0310 DD07     		lsl	r5, r3, #31
 641 0312 FBD5     		bpl	.L81
 642 0314 0023     		mov	r3, #0
 643              	.L80:
 644 0316 0A4D     		ldr	r5, .L127+8
 645 0318 2D68     		ldr	r5, [r5]
 646 031a 0195     		str	r5, [sp, #4]
 647 031c AD08     		lsr	r5, r5, #2
 648 031e AB42     		cmp	r3, r5
 649 0320 03D3     		bcc	.L82
 650              	.L85:
 651 0322 244D     		ldr	r5, .L127+124
 652 0324 054E     		ldr	r6, .L127+4
 653 0326 3580     		strh	r5, [r6]
 654 0328 46E0     		b	.L83
 655              	.L82:
 656 032a 9342     		cmp	r3, r2
 657 032c F9D0     		beq	.L85
 658 032e 9D00     		lsl	r5, r3, #2
 659 0330 4659     		ldr	r6, [r0, r5]
 660 0332 0133     		add	r3, r3, #1
 661 0334 4E51     		str	r6, [r1, r5]
 662 0336 EEE7     		b	.L80
 663              	.L128:
 664              		.align	2
 665              	.L127:
 666 0338 00000000 		.word	.LANCHOR5
 667 033c 00400041 		.word	1090535424
 668 0340 00000000 		.word	PAGE_SIZE
 669 0344 00000000 		.word	PAGES
 670 0348 00000000 		.word	MAX_FLASH
 671 034c 00000000 		.word	ptr_data
 672 0350 00000000 		.word	command
 673 0354 00000000 		.word	ptr_monitor_if
 674 0358 00000000 		.word	data
 675 035c 00000000 		.word	.LANCHOR4
 676 0360 00000000 		.word	length
 677 0364 00000000 		.word	ptr
 678 0368 00000000 		.word	i
 679 036c 00000000 		.word	.LANCHOR3
 680 0370 00000000 		.word	.LC27
 681 0374 00000000 		.word	current_number
 682 0378 00000000 		.word	u32tmp
 683 037c 00000000 		.word	j
 684 0380 00000000 		.word	.LANCHOR0
 685 0384 00000000 		.word	sp
 686 0388 00000000 		.word	.LANCHOR2
 687 038c 03000000 		.word	.LC35
 688 0390 00000000 		.word	.LANCHOR6
 689 0394 05000000 		.word	.LC38
 690 0398 00000000 		.word	.LANCHOR7
 691 039c 07000000 		.word	.LC41
 692 03a0 13000000 		.word	.LC43
 693 03a4 02A5FFFF 		.word	-23294
 694 03a8 1C000000 		.word	.LC45
 695 03ac 00000000 		.word	.LANCHOR8
 696 03b0 44A5FFFF 		.word	-23228
 697 03b4 04A5FFFF 		.word	-23292
 698              	.L83:
 699 03b8 3F4E     		ldr	r6, .L129
 700 03ba 357D     		ldrb	r5, [r6, #20]
 701 03bc EE07     		lsl	r6, r5, #31
 702 03be FBD5     		bpl	.L83
 703 03c0 9D00     		lsl	r5, r3, #2
 704 03c2 4919     		add	r1, r1, r5
 705 03c4 4019     		add	r0, r0, r5
 706 03c6 D21A     		sub	r2, r2, r3
 707 03c8 9BE7     		b	.L78
 708              	.L77:
 709 03ca 3C4B     		ldr	r3, .L129+4
 710 03cc 3C49     		ldr	r1, .L129+8
 711 03ce 1B68     		ldr	r3, [r3]
 712 03d0 D868     		ldr	r0, [r3, #12]
 713 03d2 2EE0     		b	.L115
 714              	.L75:
 715 03d4 5A2B     		cmp	r3, #90
 716 03d6 2FD1     		bne	.L52
 717 03d8 3A4B     		ldr	r3, .L129+12
 718 03da 1768     		ldr	r7, [r2]
 719 03dc 1D68     		ldr	r5, [r3]
 720 03de 0026     		mov	r6, #0
 721 03e0 EF19     		add	r7, r5, r7
 722              	.L89:
 723 03e2 BD42     		cmp	r5, r7
 724 03e4 06D0     		beq	.L126
 725 03e6 2878     		ldrb	r0, [r5]
 726 03e8 311C     		mov	r1, r6
 727 03ea FFF7FEFF 		bl	serial_add_crc
 728 03ee 0135     		add	r5, r5, #1
 729 03f0 061C     		mov	r6, r0
 730 03f2 F6E7     		b	.L89
 731              	.L126:
 732 03f4 314B     		ldr	r3, .L129+4
 733 03f6 3449     		ldr	r1, .L129+16
 734 03f8 1B68     		ldr	r3, [r3]
 735 03fa 0122     		mov	r2, #1
 736 03fc D868     		ldr	r0, [r3, #12]
 737 03fe FFF7FEFF 		bl	sam_ba_putdata.isra.0
 738 0402 0723     		mov	r3, #7
 739              	.L94:
 740 0404 0F22     		mov	r2, #15
 741 0406 3240     		and	r2, r6
 742 0408 111C     		mov	r1, r2
 743 040a 3609     		lsr	r6, r6, #4
 744 040c 3031     		add	r1, r1, #48
 745 040e 092A     		cmp	r2, #9
 746 0410 00DD     		ble	.L92
 747 0412 0731     		add	r1, r1, #7
 748              	.L92:
 749 0414 1820     		mov	r0, #24
 750 0416 C018     		add	r0, r0, r3
 751 0418 6A46     		mov	r2, sp
 752 041a 8154     		strb	r1, [r0, r2]
 753 041c 013B     		sub	r3, r3, #1
 754 041e F1D2     		bcs	.L94
 755 0420 2368     		ldr	r3, [r4]
 756 0422 06A9     		add	r1, sp, #24
 757 0424 D868     		ldr	r0, [r3, #12]
 758 0426 0822     		mov	r2, #8
 759 0428 FFF7FEFF 		bl	sam_ba_putdata.isra.0
 760 042c 2368     		ldr	r3, [r4]
 761 042e 2749     		ldr	r1, .L129+20
 762 0430 D868     		ldr	r0, [r3, #12]
 763              	.L115:
 764 0432 0322     		mov	r2, #3
 765              	.L117:
 766 0434 FFF7FEFF 		bl	sam_ba_putdata.isra.0
 767              	.L52:
 768 0438 254B     		ldr	r3, .L129+24
 769 043a 7A22     		mov	r2, #122
 770 043c 1A70     		strb	r2, [r3]
 771 043e 254B     		ldr	r3, .L129+28
 772 0440 0022     		mov	r2, #0
 773 0442 1A60     		str	r2, [r3]
 774 0444 244B     		ldr	r3, .L129+32
 775 0446 1B78     		ldrb	r3, [r3]
 776 0448 9342     		cmp	r3, r2
 777 044a 2DD0     		beq	.L42
 778 044c 1B4B     		ldr	r3, .L129+4
 779 044e 2349     		ldr	r1, .L129+36
 780 0450 1B68     		ldr	r3, [r3]
 781 0452 0122     		mov	r2, #1
 782 0454 D868     		ldr	r0, [r3, #12]
 783 0456 FFF7FEFF 		bl	sam_ba_putdata.isra.0
 784 045a 25E0     		b	.L42
 785              	.L43:
 786 045c 111C     		mov	r1, r2
 787 045e 3039     		sub	r1, r1, #48
 788 0460 C8B2     		uxtb	r0, r1
 789 0462 1C4B     		ldr	r3, .L129+28
 790 0464 0928     		cmp	r0, #9
 791 0466 04D8     		bhi	.L96
 792 0468 1D68     		ldr	r5, [r3]
 793 046a 2A01     		lsl	r2, r5, #4
 794 046c 1143     		orr	r1, r2
 795 046e 1960     		str	r1, [r3]
 796 0470 1AE0     		b	.L42
 797              	.L96:
 798 0472 111C     		mov	r1, r2
 799 0474 4139     		sub	r1, r1, #65
 800 0476 0529     		cmp	r1, #5
 801 0478 03D8     		bhi	.L97
 802 047a 1E68     		ldr	r6, [r3]
 803 047c 373A     		sub	r2, r2, #55
 804 047e 3101     		lsl	r1, r6, #4
 805 0480 06E0     		b	.L122
 806              	.L97:
 807 0482 111C     		mov	r1, r2
 808 0484 6139     		sub	r1, r1, #97
 809 0486 0529     		cmp	r1, #5
 810 0488 04D8     		bhi	.L98
 811 048a 1868     		ldr	r0, [r3]
 812 048c 573A     		sub	r2, r2, #87
 813 048e 0101     		lsl	r1, r0, #4
 814              	.L122:
 815 0490 0A43     		orr	r2, r1
 816 0492 08E0     		b	.L118
 817              	.L98:
 818 0494 2C2A     		cmp	r2, #44
 819 0496 03D1     		bne	.L99
 820 0498 0A4A     		ldr	r2, .L129+12
 821 049a 1968     		ldr	r1, [r3]
 822 049c 1160     		str	r1, [r2]
 823 049e 01E0     		b	.L119
 824              	.L99:
 825 04a0 0B49     		ldr	r1, .L129+24
 826 04a2 0A70     		strb	r2, [r1]
 827              	.L119:
 828 04a4 0022     		mov	r2, #0
 829              	.L118:
 830 04a6 1A60     		str	r2, [r3]
 831              	.L42:
 832 04a8 0D4B     		ldr	r3, .L129+40
 833 04aa 1A68     		ldr	r2, [r3]
 834 04ac 0132     		add	r2, r2, #1
 835 04ae 1A60     		str	r2, [r3]
 836 04b0 0C4B     		ldr	r3, .L129+44
 837 04b2 1A68     		ldr	r2, [r3]
 838 04b4 0132     		add	r2, r2, #1
 839 04b6 D5E5     		b	.L120
 840              	.L130:
 841              		.align	2
 842              	.L129:
 843 04b8 00400041 		.word	1090535424
 844 04bc 00000000 		.word	ptr_monitor_if
 845 04c0 20000000 		.word	.LC48
 846 04c4 00000000 		.word	ptr_data
 847 04c8 24000000 		.word	.LC50
 848 04cc 26000000 		.word	.LC52
 849 04d0 00000000 		.word	command
 850 04d4 00000000 		.word	current_number
 851 04d8 00000000 		.word	.LANCHOR3
 852 04dc 2A000000 		.word	.LC54
 853 04e0 00000000 		.word	i
 854 04e4 00000000 		.word	ptr
 856              		.comm	MAX_FLASH,4,4
 857              		.comm	PAGES,4,4
 858              		.comm	PAGE_SIZE,4,4
 859              		.comm	u32tmp,4,4
 860              		.comm	j,1,1
 861              		.comm	data,64,1
 862              		.comm	ptr,4,4
 863              		.comm	ptr_data,4,4
 864              		.comm	command,1,1
 865              		.comm	length,4,4
 866              		.comm	i,4,4
 867              		.comm	current_number,4,4
 868              		.comm	sp,4,4
 869              		.global	rxLEDPulse
 870              		.global	txLEDPulse
 871              		.global	b_sam_ba_interface_usart
 872              		.global	b_terminal_mode
 873              		.comm	ptr_monitor_if,4,4
 874              		.global	uart_if
 875              		.global	RomBOOT_ExtendedCapabilities
 876              		.global	RomBOOT_Version
 877              		.section	.rodata
 878              		.align	2
 879              		.set	.LANCHOR5,. + 0
 880              	.LC0:
 881 0000 08000000 		.word	8
 882 0004 10000000 		.word	16
 883 0008 20000000 		.word	32
 884 000c 40000000 		.word	64
 885 0010 80000000 		.word	128
 886 0014 00010000 		.word	256
 887 0018 00020000 		.word	512
 888 001c 00040000 		.word	1024
 889              		.section	.rodata.uart_if,"a",%progbits
 890              		.align	2
 891              		.set	.LANCHOR1,. + 0
 894              	uart_if:
 895 0000 00000000 		.word	serial_putc
 896 0004 00000000 		.word	serial_getc
 897 0008 00000000 		.word	serial_is_rx_ready
 898 000c 00000000 		.word	serial_putdata
 899 0010 00000000 		.word	serial_getdata
 900 0014 00000000 		.word	serial_putdata_xmd
 901 0018 00000000 		.word	serial_getdata_xmd
 902              		.section	.bss.b_terminal_mode,"aw",%nobits
 903              		.set	.LANCHOR3,. + 0
 906              	b_terminal_mode:
 907 0000 00       		.space	1
 908              		.section	.bss.rxLEDPulse,"aw",%nobits
 909              		.align	1
 910              		.set	.LANCHOR4,. + 0
 913              	rxLEDPulse:
 914 0000 0000     		.space	2
 915              		.section	.rodata.str1.1,"aMS",%progbits,1
 916              	.LC27:
 917 0000 0A0D00   		.ascii	"\012\015\000"
 918              	.LC35:
 919 0003 7600     		.ascii	"v\000"
 920              	.LC38:
 921 0005 2000     		.ascii	" \000"
 922              	.LC41:
 923 0007 4E6F7620 		.ascii	"Nov 14 2017\000"
 923      31342032 
 923      30313700 
 924              	.LC43:
 925 0013 31393A31 		.ascii	"19:18:11\000"
 925      383A3131 
 925      00
 926              	.LC45:
 927 001c 580A0D00 		.ascii	"X\012\015\000"
 928              	.LC48:
 929 0020 590A0D00 		.ascii	"Y\012\015\000"
 930              	.LC50:
 931 0024 5A00     		.ascii	"Z\000"
 932              	.LC52:
 933 0026 230A0D00 		.ascii	"#\012\015\000"
 934              	.LC54:
 935 002a 3E00     		.ascii	">\000"
 936              		.section	.bss.txLEDPulse,"aw",%nobits
 937              		.align	1
 938              		.set	.LANCHOR0,. + 0
 941              	txLEDPulse:
 942 0000 0000     		.space	2
 943              		.section	.rodata.RomBOOT_Version,"a",%progbits
 944              		.set	.LANCHOR6,. + 0
 947              	RomBOOT_Version:
 948 0000 322E3000 		.ascii	"2.0\000"
 949              		.section	.bss.b_sam_ba_interface_usart,"aw",%nobits
 950              		.set	.LANCHOR2,. + 0
 953              	b_sam_ba_interface_usart:
 954 0000 00       		.space	1
 955              		.section	.rodata.RomBOOT_ExtendedCapabilities,"a",%progbits
 956              		.set	.LANCHOR7,. + 0
 959              	RomBOOT_ExtendedCapabilities:
 960 0000 5B417264 		.ascii	"[Arduino:XYZ]\000"
 960      75696E6F 
 960      3A58595A 
 960      5D00
 961              		.section	.bss.src_buff_addr.12750,"aw",%nobits
 962              		.align	2
 963              		.set	.LANCHOR8,. + 0
 966              	src_buff_addr.12750:
 967 0000 00000000 		.space	4
 968              		.ident	"GCC: (GNU Tools for ARM Embedded Processors) 4.8.3 20140228 (release) [ARM/embedded-4_8-br
DEFINED SYMBOLS
                            *ABS*:00000000 sam_ba_monitor.c
C:\cygwin\tmp\ccvffzgb.s:15     .text.sam_ba_putdata.isra.0:00000000 $t
C:\cygwin\tmp\ccvffzgb.s:19     .text.sam_ba_putdata.isra.0:00000000 sam_ba_putdata.isra.0
C:\cygwin\tmp\ccvffzgb.s:33     .text.sam_ba_putdata.isra.0:00000014 $d
C:\cygwin\tmp\ccvffzgb.s:36     .text.sam_ba_monitor_init:00000000 $t
C:\cygwin\tmp\ccvffzgb.s:41     .text.sam_ba_monitor_init:00000000 sam_ba_monitor_init
C:\cygwin\tmp\ccvffzgb.s:55     .text.sam_ba_monitor_init:00000010 $d
                            *COM*:00000004 ptr_monitor_if
C:\cygwin\tmp\ccvffzgb.s:60     .text.sam_ba_putdata_term:00000000 $t
C:\cygwin\tmp\ccvffzgb.s:65     .text.sam_ba_putdata_term:00000000 sam_ba_putdata_term
C:\cygwin\tmp\ccvffzgb.s:137    .text.sam_ba_putdata_term:00000078 $d
C:\cygwin\tmp\ccvffzgb.s:141    .text.call_applet:00000000 $t
C:\cygwin\tmp\ccvffzgb.s:146    .text.call_applet:00000000 call_applet
C:\cygwin\tmp\ccvffzgb.s:173    .text.call_applet:00000018 $d
                            *COM*:00000004 sp
C:\cygwin\tmp\ccvffzgb.s:176    .text.sam_ba_monitor_sys_tick:00000000 $t
C:\cygwin\tmp\ccvffzgb.s:181    .text.sam_ba_monitor_sys_tick:00000000 sam_ba_monitor_sys_tick
C:\cygwin\tmp\ccvffzgb.s:205    .text.sam_ba_monitor_sys_tick:00000024 $d
C:\cygwin\tmp\ccvffzgb.s:209    .text.sam_ba_monitor_run:00000000 $t
C:\cygwin\tmp\ccvffzgb.s:214    .text.sam_ba_monitor_run:00000000 sam_ba_monitor_run
C:\cygwin\tmp\ccvffzgb.s:666    .text.sam_ba_monitor_run:00000338 $d
                            *COM*:00000004 PAGE_SIZE
                            *COM*:00000004 PAGES
                            *COM*:00000004 MAX_FLASH
                            *COM*:00000004 ptr_data
                            *COM*:00000001 command
                            *COM*:00000040 data
                            *COM*:00000004 length
                            *COM*:00000004 ptr
                            *COM*:00000004 i
                            *COM*:00000004 current_number
                            *COM*:00000004 u32tmp
                            *COM*:00000001 j
C:\cygwin\tmp\ccvffzgb.s:699    .text.sam_ba_monitor_run:000003b8 $t
C:\cygwin\tmp\ccvffzgb.s:843    .text.sam_ba_monitor_run:000004b8 $d
C:\cygwin\tmp\ccvffzgb.s:913    .bss.rxLEDPulse:00000000 rxLEDPulse
C:\cygwin\tmp\ccvffzgb.s:941    .bss.txLEDPulse:00000000 txLEDPulse
C:\cygwin\tmp\ccvffzgb.s:953    .bss.b_sam_ba_interface_usart:00000000 b_sam_ba_interface_usart
C:\cygwin\tmp\ccvffzgb.s:906    .bss.b_terminal_mode:00000000 b_terminal_mode
C:\cygwin\tmp\ccvffzgb.s:894    .rodata.uart_if:00000000 uart_if
C:\cygwin\tmp\ccvffzgb.s:959    .rodata.RomBOOT_ExtendedCapabilities:00000000 RomBOOT_ExtendedCapabilities
C:\cygwin\tmp\ccvffzgb.s:947    .rodata.RomBOOT_Version:00000000 RomBOOT_Version
C:\cygwin\tmp\ccvffzgb.s:878    .rodata:00000000 $d
C:\cygwin\tmp\ccvffzgb.s:890    .rodata.uart_if:00000000 $d
C:\cygwin\tmp\ccvffzgb.s:907    .bss.b_terminal_mode:00000000 $d
C:\cygwin\tmp\ccvffzgb.s:909    .bss.rxLEDPulse:00000000 $d
C:\cygwin\tmp\ccvffzgb.s:937    .bss.txLEDPulse:00000000 $d
C:\cygwin\tmp\ccvffzgb.s:954    .bss.b_sam_ba_interface_usart:00000000 $d
C:\cygwin\tmp\ccvffzgb.s:962    .bss.src_buff_addr.12750:00000000 $d
C:\cygwin\tmp\ccvffzgb.s:966    .bss.src_buff_addr.12750:00000000 src_buff_addr.12750

UNDEFINED SYMBOLS
memcpy
serial_add_crc
serial_putc
serial_getc
serial_is_rx_ready
serial_putdata
serial_getdata
serial_putdata_xmd
serial_getdata_xmd
