   1              		.cpu cortex-m0plus
   2              		.fpu softvfp
   3              		.eabi_attribute 20, 1
   4              		.eabi_attribute 21, 1
   5              		.eabi_attribute 23, 3
   6              		.eabi_attribute 24, 1
   7              		.eabi_attribute 25, 1
   8              		.eabi_attribute 26, 1
   9              		.eabi_attribute 30, 4
  10              		.eabi_attribute 34, 0
  11              		.eabi_attribute 18, 4
  12              		.code	16
  13              		.file	"sam_ba_serial.c"
  14              		.section	.text.serial_open,"ax",%progbits
  15              		.align	1
  16              		.global	serial_open
  17              		.code	16
  18              		.thumb_func
  20              	serial_open:
  21 0000 10B5     		push	{r4, lr}
  22 0002 0124     		mov	r4, #1
  23 0004 6442     		neg	r4, r4
  24 0006 201C     		mov	r0, r4
  25 0008 FFF7FEFF 		bl	pinMux
  26 000c 201C     		mov	r0, r4
  27 000e FFF7FEFF 		bl	pinMux
  28 0012 0F48     		ldr	r0, .L2
  29 0014 FFF7FEFF 		bl	pinMux
  30 0018 0E48     		ldr	r0, .L2+4
  31 001a FFF7FEFF 		bl	pinMux
  32 001e 0E4B     		ldr	r3, .L2+8
  33 0020 4022     		mov	r2, #64
  34 0022 1A60     		str	r2, [r3]
  35 0024 FFF7FEFF 		bl	waitForSync
  36 0028 C422     		mov	r2, #196
  37 002a 0C48     		ldr	r0, .L2+12
  38 002c 0C49     		ldr	r1, .L2+16
  39 002e 9203     		lsl	r2, r2, #14
  40 0030 FFF7FEFF 		bl	uart_basic_init
  41 0034 0B4A     		ldr	r2, .L2+20
  42 0036 0023     		mov	r3, #0
  43 0038 1370     		strb	r3, [r2]
  44 003a 0B4A     		ldr	r2, .L2+24
  45              		@ sp needed
  46 003c 1370     		strb	r3, [r2]
  47 003e 0B4A     		ldr	r2, .L2+28
  48 0040 1370     		strb	r3, [r2]
  49 0042 0B4A     		ldr	r2, .L2+32
  50 0044 1370     		strb	r3, [r2]
  51 0046 0B4A     		ldr	r2, .L2+36
  52 0048 1370     		strb	r3, [r2]
  53 004a 0B4A     		ldr	r2, .L2+40
  54 004c 1370     		strb	r3, [r2]
  55 004e 10BD     		pop	{r4, pc}
  56              	.L3:
  57              		.align	2
  58              	.L2:
  59 0050 03001E00 		.word	1966083
  60 0054 03001F00 		.word	2031619
  61 0058 D01C0040 		.word	1073749200
  62 005c 00080042 		.word	1107298304
  63 0060 2AF60000 		.word	63018
  64 0064 00000000 		.word	b_sharp_received
  65 0068 00000000 		.word	idx_rx_read
  66 006c 00000000 		.word	idx_rx_write
  67 0070 00000000 		.word	idx_tx_read
  68 0074 00000000 		.word	idx_tx_write
  69 0078 00000000 		.word	error_timeout
  71              		.section	.text.serial_close,"ax",%progbits
  72              		.align	1
  73              		.global	serial_close
  74              		.code	16
  75              		.thumb_func
  77              	serial_close:
  78 0000 08B5     		push	{r3, lr}
  79 0002 0248     		ldr	r0, .L5
  80 0004 FFF7FEFF 		bl	uart_disable
  81              		@ sp needed
  82 0008 08BD     		pop	{r3, pc}
  83              	.L6:
  84 000a C046     		.align	2
  85              	.L5:
  86 000c 00080042 		.word	1107298304
  88              		.section	.text.serial_putc,"ax",%progbits
  89              		.align	1
  90              		.global	serial_putc
  91              		.code	16
  92              		.thumb_func
  94              	serial_putc:
  95 0000 08B5     		push	{r3, lr}
  96 0002 C1B2     		uxtb	r1, r0
  97 0004 0248     		ldr	r0, .L8
  98 0006 FFF7FEFF 		bl	uart_write_byte
  99              		@ sp needed
 100 000a 0120     		mov	r0, #1
 101 000c 08BD     		pop	{r3, pc}
 102              	.L9:
 103 000e C046     		.align	2
 104              	.L8:
 105 0010 00080042 		.word	1107298304
 107              		.section	.text.serial_is_rx_ready,"ax",%progbits
 108              		.align	1
 109              		.global	serial_is_rx_ready
 110              		.code	16
 111              		.thumb_func
 113              	serial_is_rx_ready:
 114 0000 024B     		ldr	r3, .L11
 115              		@ sp needed
 116 0002 187E     		ldrb	r0, [r3, #24]
 117 0004 4007     		lsl	r0, r0, #29
 118 0006 C00F     		lsr	r0, r0, #31
 119 0008 7047     		bx	lr
 120              	.L12:
 121 000a C046     		.align	2
 122              	.L11:
 123 000c 00080042 		.word	1107298304
 125              		.section	.text.serial_getc,"ax",%progbits
 126              		.align	1
 127              		.global	serial_getc
 128              		.code	16
 129              		.thumb_func
 131              	serial_getc:
 132 0000 08B5     		push	{r3, lr}
 133              	.L15:
 134 0002 FFF7FEFF 		bl	serial_is_rx_ready
 135 0006 0028     		cmp	r0, #0
 136 0008 FBD0     		beq	.L15
 137 000a 0248     		ldr	r0, .L17
 138 000c FFF7FEFF 		bl	uart_read_byte
 139              		@ sp needed
 140 0010 08BD     		pop	{r3, pc}
 141              	.L18:
 142 0012 C046     		.align	2
 143              	.L17:
 144 0014 00080042 		.word	1107298304
 146              		.section	.text.serial_sharp_received,"ax",%progbits
 147              		.align	1
 148              		.global	serial_sharp_received
 149              		.code	16
 150              		.thumb_func
 152              	serial_sharp_received:
 153 0000 08B5     		push	{r3, lr}
 154 0002 FFF7FEFF 		bl	serial_is_rx_ready
 155 0006 0023     		mov	r3, #0
 156 0008 9842     		cmp	r0, r3
 157 000a 05D0     		beq	.L20
 158 000c FFF7FEFF 		bl	serial_getc
 159 0010 031C     		mov	r3, r0
 160 0012 233B     		sub	r3, r3, #35
 161 0014 5A42     		neg	r2, r3
 162 0016 5341     		adc	r3, r3, r2
 163              	.L20:
 164 0018 181C     		mov	r0, r3
 165              		@ sp needed
 166 001a 08BD     		pop	{r3, pc}
 168              		.section	.text.serial_readc,"ax",%progbits
 169              		.align	1
 170              		.global	serial_readc
 171              		.code	16
 172              		.thumb_func
 174              	serial_readc:
 175 0000 054B     		ldr	r3, .L24
 176 0002 0649     		ldr	r1, .L24+4
 177 0004 1A78     		ldrb	r2, [r3]
 178              		@ sp needed
 179 0006 D2B2     		uxtb	r2, r2
 180 0008 885C     		ldrb	r0, [r1, r2]
 181 000a 1A78     		ldrb	r2, [r3]
 182 000c 7F21     		mov	r1, #127
 183 000e 0132     		add	r2, r2, #1
 184 0010 0A40     		and	r2, r1
 185 0012 C0B2     		uxtb	r0, r0
 186 0014 1A70     		strb	r2, [r3]
 187 0016 7047     		bx	lr
 188              	.L25:
 189              		.align	2
 190              	.L24:
 191 0018 00000000 		.word	idx_rx_read
 192 001c 00000000 		.word	buffer_rx_usart
 194              		.section	.text.serial_putdata,"ax",%progbits
 195              		.align	1
 196              		.global	serial_putdata
 197              		.code	16
 198              		.thumb_func
 200              	serial_putdata:
 201 0000 70B5     		push	{r4, r5, r6, lr}
 202 0002 041C     		mov	r4, r0
 203 0004 0D1C     		mov	r5, r1
 204 0006 4618     		add	r6, r0, r1
 205              	.L27:
 206 0008 B442     		cmp	r4, r6
 207 000a 04D0     		beq	.L29
 208 000c 2078     		ldrb	r0, [r4]
 209 000e FFF7FEFF 		bl	serial_putc
 210 0012 0134     		add	r4, r4, #1
 211 0014 F8E7     		b	.L27
 212              	.L29:
 213 0016 281C     		mov	r0, r5
 214              		@ sp needed
 215 0018 70BD     		pop	{r4, r5, r6, pc}
 217              		.section	.text.serial_getdata,"ax",%progbits
 218              		.align	1
 219              		.global	serial_getdata
 220              		.code	16
 221              		.thumb_func
 223              	serial_getdata:
 224 0000 10B5     		push	{r4, lr}
 225 0002 041C     		mov	r4, r0
 226 0004 FFF7FEFF 		bl	serial_getc
 227              		@ sp needed
 228 0008 2070     		strb	r0, [r4]
 229 000a 0120     		mov	r0, #1
 230 000c 10BD     		pop	{r4, pc}
 232              		.section	.text.serial_add_crc,"ax",%progbits
 233              		.align	1
 234              		.global	serial_add_crc
 235              		.code	16
 236              		.thumb_func
 238              	serial_add_crc:
 239 0000 0B0A     		lsr	r3, r1, #8
 240 0002 5840     		eor	r0, r3
 241 0004 034B     		ldr	r3, .L32
 242 0006 4000     		lsl	r0, r0, #1
 243 0008 C05A     		ldrh	r0, [r0, r3]
 244 000a 0902     		lsl	r1, r1, #8
 245 000c 4840     		eor	r0, r1
 246 000e 80B2     		uxth	r0, r0
 247              		@ sp needed
 248 0010 7047     		bx	lr
 249              	.L33:
 250 0012 C046     		.align	2
 251              	.L32:
 252 0014 00000000 		.word	.LANCHOR0
 254              		.section	.text.getbytes,"ax",%progbits
 255              		.align	1
 256              		.code	16
 257              		.thumb_func
 259              	getbytes:
 260 0000 F7B5     		push	{r0, r1, r2, r4, r5, r6, r7, lr}
 261 0002 0024     		mov	r4, #0
 262 0004 051C     		mov	r5, r0
 263 0006 0F1C     		mov	r7, r1
 264 0008 261C     		mov	r6, r4
 265              	.L35:
 266 000a BC42     		cmp	r4, r7
 267 000c 20D0     		beq	.L43
 268 000e FFF7FEFF 		bl	serial_getc
 269 0012 114B     		ldr	r3, .L44
 270 0014 C0B2     		uxtb	r0, r0
 271 0016 1B78     		ldrb	r3, [r3]
 272 0018 0190     		str	r0, [sp, #4]
 273 001a 002B     		cmp	r3, #0
 274 001c 1AD1     		bne	.L40
 275 001e 311C     		mov	r1, r6
 276 0020 FFF7FEFF 		bl	serial_add_crc
 277 0024 0D4B     		ldr	r3, .L44+4
 278 0026 061C     		mov	r6, r0
 279 0028 1A88     		ldrh	r2, [r3]
 280 002a 002A     		cmp	r2, #0
 281 002c 04D1     		bne	.L37
 282 002e 0C4A     		ldr	r2, .L44+8
 283 0030 1178     		ldrb	r1, [r2]
 284 0032 2A1C     		mov	r2, r5
 285 0034 0029     		cmp	r1, #0
 286 0036 07D0     		beq	.L38
 287              	.L37:
 288 0038 0199     		ldr	r1, [sp, #4]
 289 003a 6A1C     		add	r2, r5, #1
 290 003c 2970     		strb	r1, [r5]
 291 003e 802F     		cmp	r7, #128
 292 0040 02D1     		bne	.L38
 293 0042 1988     		ldrh	r1, [r3]
 294 0044 0139     		sub	r1, r1, #1
 295 0046 1980     		strh	r1, [r3]
 296              	.L38:
 297 0048 0134     		add	r4, r4, #1
 298 004a A4B2     		uxth	r4, r4
 299 004c 151C     		mov	r5, r2
 300 004e DCE7     		b	.L35
 301              	.L43:
 302 0050 301C     		mov	r0, r6
 303 0052 00E0     		b	.L36
 304              	.L40:
 305 0054 0120     		mov	r0, #1
 306              	.L36:
 307              		@ sp needed
 308 0056 FEBD     		pop	{r1, r2, r3, r4, r5, r6, r7, pc}
 309              	.L45:
 310              		.align	2
 311              	.L44:
 312 0058 00000000 		.word	error_timeout
 313 005c 00000000 		.word	size_of_data
 314 0060 00000000 		.word	mode_of_transfer
 316              		.section	.text.serial_putdata_xmd,"ax",%progbits
 317              		.align	1
 318              		.global	serial_putdata_xmd
 319              		.code	16
 320              		.thumb_func
 322              	serial_putdata_xmd:
 323 0000 F0B5     		push	{r4, r5, r6, r7, lr}
 324 0002 3E4E     		ldr	r6, .L84
 325 0004 85B0     		sub	sp, sp, #20
 326 0006 0022     		mov	r2, #0
 327 0008 0390     		str	r0, [sp, #12]
 328 000a 0C1C     		mov	r4, r1
 329 000c 3270     		strb	r2, [r6]
 330 000e 3C4B     		ldr	r3, .L84+4
 331 0010 9142     		cmp	r1, r2
 332 0012 01D1     		bne	.L47
 333 0014 0122     		mov	r2, #1
 334 0016 01E0     		b	.L83
 335              	.L47:
 336 0018 3A49     		ldr	r1, .L84+8
 337 001a 0C80     		strh	r4, [r1]
 338              	.L83:
 339 001c 1A70     		strb	r2, [r3]
 340 001e 7F23     		mov	r3, #127
 341 0020 1C42     		tst	r4, r3
 342 0022 01D0     		beq	.L55
 343 0024 8034     		add	r4, r4, #128
 344 0026 9C43     		bic	r4, r3
 345              	.L55:
 346 0028 FFF7FEFF 		bl	serial_getc
 347 002c 3378     		ldrb	r3, [r6]
 348 002e C0B2     		uxtb	r0, r0
 349 0030 002B     		cmp	r3, #0
 350 0032 07D0     		beq	.L51
 351 0034 0025     		mov	r5, #0
 352 0036 3570     		strb	r5, [r6]
 353 0038 FFF7FEFF 		bl	serial_getc
 354 003c 3378     		ldrb	r3, [r6]
 355 003e C0B2     		uxtb	r0, r0
 356 0040 AB42     		cmp	r3, r5
 357 0042 36D1     		bne	.L64
 358              	.L51:
 359 0044 4328     		cmp	r0, #67
 360 0046 03D0     		beq	.L54
 361 0048 7128     		cmp	r0, #113
 362 004a 53D0     		beq	.L66
 363 004c 1528     		cmp	r0, #21
 364 004e EBD1     		bne	.L55
 365              	.L54:
 366 0050 0123     		mov	r3, #1
 367 0052 0093     		str	r3, [sp]
 368              	.L59:
 369 0054 0120     		mov	r0, #1
 370 0056 FFF7FEFF 		bl	serial_putc
 371 005a 0098     		ldr	r0, [sp]
 372 005c FFF7FEFF 		bl	serial_putc
 373 0060 0099     		ldr	r1, [sp]
 374 0062 8025     		mov	r5, #128
 375 0064 C843     		mvn	r0, r1
 376 0066 C0B2     		uxtb	r0, r0
 377 0068 FFF7FEFF 		bl	serial_putc
 378 006c 039B     		ldr	r3, [sp, #12]
 379 006e 0027     		mov	r7, #0
 380 0070 0293     		str	r3, [sp, #8]
 381              	.L63:
 382 0072 244A     		ldr	r2, .L84+8
 383 0074 1388     		ldrh	r3, [r2]
 384 0076 002B     		cmp	r3, #0
 385 0078 1DD1     		bne	.L60
 386 007a 2149     		ldr	r1, .L84+4
 387 007c 0193     		str	r3, [sp, #4]
 388 007e 0978     		ldrb	r1, [r1]
 389 0080 0029     		cmp	r1, #0
 390 0082 18D1     		bne	.L60
 391              	.L61:
 392 0084 0198     		ldr	r0, [sp, #4]
 393 0086 FFF7FEFF 		bl	serial_putc
 394 008a 391C     		mov	r1, r7
 395 008c 0198     		ldr	r0, [sp, #4]
 396 008e FFF7FEFF 		bl	serial_add_crc
 397 0092 013D     		sub	r5, r5, #1
 398 0094 071C     		mov	r7, r0
 399 0096 002D     		cmp	r5, #0
 400 0098 EBD1     		bne	.L63
 401 009a 000A     		lsr	r0, r0, #8
 402 009c C0B2     		uxtb	r0, r0
 403 009e FFF7FEFF 		bl	serial_putc
 404 00a2 F8B2     		uxtb	r0, r7
 405 00a4 FFF7FEFF 		bl	serial_putc
 406 00a8 FFF7FEFF 		bl	serial_getc
 407 00ac 3378     		ldrb	r3, [r6]
 408 00ae 002B     		cmp	r3, #0
 409 00b0 0AD0     		beq	.L82
 410              	.L64:
 411 00b2 3570     		strb	r5, [r6]
 412 00b4 1FE0     		b	.L52
 413              	.L60:
 414 00b6 0299     		ldr	r1, [sp, #8]
 415 00b8 013B     		sub	r3, r3, #1
 416 00ba 0978     		ldrb	r1, [r1]
 417 00bc 1380     		strh	r3, [r2]
 418 00be 029B     		ldr	r3, [sp, #8]
 419 00c0 0191     		str	r1, [sp, #4]
 420 00c2 0133     		add	r3, r3, #1
 421 00c4 0293     		str	r3, [sp, #8]
 422 00c6 DDE7     		b	.L61
 423              	.L82:
 424 00c8 C0B2     		uxtb	r0, r0
 425 00ca 0628     		cmp	r0, #6
 426 00cc 07D1     		bne	.L56
 427 00ce 009B     		ldr	r3, [sp]
 428 00d0 0399     		ldr	r1, [sp, #12]
 429 00d2 0133     		add	r3, r3, #1
 430 00d4 DBB2     		uxtb	r3, r3
 431 00d6 8031     		add	r1, r1, #128
 432 00d8 0093     		str	r3, [sp]
 433 00da 803C     		sub	r4, r4, #128
 434 00dc 0391     		str	r1, [sp, #12]
 435              	.L56:
 436 00de 002C     		cmp	r4, #0
 437 00e0 B8D1     		bne	.L59
 438 00e2 0420     		mov	r0, #4
 439 00e4 FFF7FEFF 		bl	serial_putc
 440 00e8 FFF7FEFF 		bl	serial_getc
 441 00ec 044B     		ldr	r3, .L84+4
 442 00ee 0125     		mov	r5, #1
 443 00f0 1C70     		strb	r4, [r3]
 444 00f2 00E0     		b	.L52
 445              	.L66:
 446 00f4 0025     		mov	r5, #0
 447              	.L52:
 448 00f6 281C     		mov	r0, r5
 449 00f8 05B0     		add	sp, sp, #20
 450              		@ sp needed
 451 00fa F0BD     		pop	{r4, r5, r6, r7, pc}
 452              	.L85:
 453              		.align	2
 454              	.L84:
 455 00fc 00000000 		.word	error_timeout
 456 0100 00000000 		.word	mode_of_transfer
 457 0104 00000000 		.word	size_of_data
 459              		.section	.text.serial_getdata_xmd,"ax",%progbits
 460              		.align	1
 461              		.global	serial_getdata_xmd
 462              		.code	16
 463              		.thumb_func
 465              	serial_getdata_xmd:
 466 0000 F0B5     		push	{r4, r5, r6, r7, lr}
 467 0002 384C     		ldr	r4, .L120
 468 0004 87B0     		sub	sp, sp, #28
 469 0006 0023     		mov	r3, #0
 470 0008 0190     		str	r0, [sp, #4]
 471 000a 2370     		strb	r3, [r4]
 472 000c 9942     		cmp	r1, r3
 473 000e 01D1     		bne	.L87
 474 0010 0123     		mov	r3, #1
 475 0012 01E0     		b	.L117
 476              	.L87:
 477 0014 344A     		ldr	r2, .L120+4
 478 0016 1180     		strh	r1, [r2]
 479              	.L117:
 480 0018 344A     		ldr	r2, .L120+8
 481 001a 6426     		mov	r6, #100
 482 001c 1370     		strb	r3, [r2]
 483              	.L95:
 484 001e 4320     		mov	r0, #67
 485 0020 FFF7FEFF 		bl	serial_putc
 486 0024 324F     		ldr	r7, .L120+12
 487              	.L89:
 488 0026 FFF7FEFF 		bl	serial_is_rx_ready
 489 002a 0028     		cmp	r0, #0
 490 002c 03D1     		bne	.L90
 491 002e 002F     		cmp	r7, #0
 492 0030 03D0     		beq	.L92
 493 0032 013F     		sub	r7, r7, #1
 494 0034 F7E7     		b	.L89
 495              	.L90:
 496 0036 002F     		cmp	r7, #0
 497 0038 03D1     		bne	.L93
 498              	.L92:
 499 003a 013E     		sub	r6, r6, #1
 500 003c 002E     		cmp	r6, #0
 501 003e EED1     		bne	.L95
 502 0040 4DE0     		b	.L112
 503              	.L93:
 504 0042 0125     		mov	r5, #1
 505              	.L108:
 506 0044 FFF7FEFF 		bl	serial_getc
 507 0048 2378     		ldrb	r3, [r4]
 508 004a 002B     		cmp	r3, #0
 509 004c 38D1     		bne	.L119
 510 004e C0B2     		uxtb	r0, r0
 511 0050 0290     		str	r0, [sp, #8]
 512 0052 0128     		cmp	r0, #1
 513 0054 05D0     		beq	.L98
 514 0056 0428     		cmp	r0, #4
 515 0058 3DD1     		bne	.L97
 516 005a 0620     		mov	r0, #6
 517 005c FFF7FEFF 		bl	serial_putc
 518 0060 39E0     		b	.L97
 519              	.L98:
 520 0062 05AE     		add	r6, sp, #20
 521 0064 0221     		mov	r1, #2
 522 0066 301C     		mov	r0, r6
 523 0068 FFF7FEFF 		bl	getbytes
 524 006c 0198     		ldr	r0, [sp, #4]
 525 006e 8021     		mov	r1, #128
 526 0070 FFF7FEFF 		bl	getbytes
 527 0074 2378     		ldrb	r3, [r4]
 528 0076 0390     		str	r0, [sp, #12]
 529 0078 002B     		cmp	r3, #0
 530 007a 18D1     		bne	.L118
 531 007c FFF7FEFF 		bl	serial_getc
 532 0080 0702     		lsl	r7, r0, #8
 533 0082 FFF7FEFF 		bl	serial_getc
 534 0086 BFB2     		uxth	r7, r7
 535 0088 2378     		ldrb	r3, [r4]
 536 008a 3F18     		add	r7, r7, r0
 537 008c BFB2     		uxth	r7, r7
 538 008e 012B     		cmp	r3, #1
 539 0090 0DD0     		beq	.L118
 540 0092 039B     		ldr	r3, [sp, #12]
 541 0094 9F42     		cmp	r7, r3
 542 0096 07D1     		bne	.L103
 543 0098 3378     		ldrb	r3, [r6]
 544 009a AB42     		cmp	r3, r5
 545 009c 04D1     		bne	.L103
 546 009e EB43     		mvn	r3, r5
 547 00a0 7278     		ldrb	r2, [r6, #1]
 548 00a2 DBB2     		uxtb	r3, r3
 549 00a4 9A42     		cmp	r2, r3
 550 00a6 04D0     		beq	.L104
 551              	.L103:
 552 00a8 1820     		mov	r0, #24
 553 00aa FFF7FEFF 		bl	serial_putc
 554              	.L118:
 555 00ae 0023     		mov	r3, #0
 556 00b0 03E0     		b	.L101
 557              	.L104:
 558 00b2 0620     		mov	r0, #6
 559 00b4 FFF7FEFF 		bl	serial_putc
 560 00b8 029B     		ldr	r3, [sp, #8]
 561              	.L101:
 562 00ba 2278     		ldrb	r2, [r4]
 563 00bc 002A     		cmp	r2, #0
 564 00be 02D0     		beq	.L105
 565              	.L119:
 566 00c0 0026     		mov	r6, #0
 567 00c2 2670     		strb	r6, [r4]
 568 00c4 0BE0     		b	.L112
 569              	.L105:
 570 00c6 012B     		cmp	r3, #1
 571 00c8 05D1     		bne	.L97
 572 00ca 019A     		ldr	r2, [sp, #4]
 573 00cc 6B1C     		add	r3, r5, #1
 574 00ce 8032     		add	r2, r2, #128
 575 00d0 DDB2     		uxtb	r5, r3
 576 00d2 0192     		str	r2, [sp, #4]
 577 00d4 B6E7     		b	.L108
 578              	.L97:
 579 00d6 054A     		ldr	r2, .L120+8
 580 00d8 0023     		mov	r3, #0
 581 00da 1370     		strb	r3, [r2]
 582 00dc 0126     		mov	r6, #1
 583              	.L112:
 584 00de 301C     		mov	r0, r6
 585 00e0 07B0     		add	sp, sp, #28
 586              		@ sp needed
 587 00e2 F0BD     		pop	{r4, r5, r6, r7, pc}
 588              	.L121:
 589              		.align	2
 590              	.L120:
 591 00e4 00000000 		.word	error_timeout
 592 00e8 00000000 		.word	size_of_data
 593 00ec 00000000 		.word	mode_of_transfer
 594 00f0 00350C00 		.word	800000
 596              		.comm	mode_of_transfer,1,1
 597              		.comm	size_of_data,2,2
 598              		.comm	error_timeout,1,1
 599              		.comm	idx_tx_write,1,1
 600              		.comm	idx_tx_read,1,1
 601              		.comm	buffer_tx_usart,128,1
 602              		.comm	idx_rx_write,1,1
 603              		.comm	idx_rx_read,1,1
 604              		.comm	buffer_rx_usart,128,1
 605              		.comm	b_sharp_received,1,1
 606              		.section	.rodata.crc16Table,"a",%progbits
 607              		.align	1
 608              		.set	.LANCHOR0,. + 0
 611              	crc16Table:
 612 0000 0000     		.short	0
 613 0002 2110     		.short	4129
 614 0004 4220     		.short	8258
 615 0006 6330     		.short	12387
 616 0008 8440     		.short	16516
 617 000a A550     		.short	20645
 618 000c C660     		.short	24774
 619 000e E770     		.short	28903
 620 0010 0881     		.short	-32504
 621 0012 2991     		.short	-28375
 622 0014 4AA1     		.short	-24246
 623 0016 6BB1     		.short	-20117
 624 0018 8CC1     		.short	-15988
 625 001a ADD1     		.short	-11859
 626 001c CEE1     		.short	-7730
 627 001e EFF1     		.short	-3601
 628 0020 3112     		.short	4657
 629 0022 1002     		.short	528
 630 0024 7332     		.short	12915
 631 0026 5222     		.short	8786
 632 0028 B552     		.short	21173
 633 002a 9442     		.short	17044
 634 002c F772     		.short	29431
 635 002e D662     		.short	25302
 636 0030 3993     		.short	-27847
 637 0032 1883     		.short	-31976
 638 0034 7BB3     		.short	-19589
 639 0036 5AA3     		.short	-23718
 640 0038 BDD3     		.short	-11331
 641 003a 9CC3     		.short	-15460
 642 003c FFF3     		.short	-3073
 643 003e DEE3     		.short	-7202
 644 0040 6224     		.short	9314
 645 0042 4334     		.short	13379
 646 0044 2004     		.short	1056
 647 0046 0114     		.short	5121
 648 0048 E664     		.short	25830
 649 004a C774     		.short	29895
 650 004c A444     		.short	17572
 651 004e 8554     		.short	21637
 652 0050 6AA5     		.short	-23190
 653 0052 4BB5     		.short	-19125
 654 0054 2885     		.short	-31448
 655 0056 0995     		.short	-27383
 656 0058 EEE5     		.short	-6674
 657 005a CFF5     		.short	-2609
 658 005c ACC5     		.short	-14932
 659 005e 8DD5     		.short	-10867
 660 0060 5336     		.short	13907
 661 0062 7226     		.short	9842
 662 0064 1116     		.short	5649
 663 0066 3006     		.short	1584
 664 0068 D776     		.short	30423
 665 006a F666     		.short	26358
 666 006c 9556     		.short	22165
 667 006e B446     		.short	18100
 668 0070 5BB7     		.short	-18597
 669 0072 7AA7     		.short	-22662
 670 0074 1997     		.short	-26855
 671 0076 3887     		.short	-30920
 672 0078 DFF7     		.short	-2081
 673 007a FEE7     		.short	-6146
 674 007c 9DD7     		.short	-10339
 675 007e BCC7     		.short	-14404
 676 0080 C448     		.short	18628
 677 0082 E558     		.short	22757
 678 0084 8668     		.short	26758
 679 0086 A778     		.short	30887
 680 0088 4008     		.short	2112
 681 008a 6118     		.short	6241
 682 008c 0228     		.short	10242
 683 008e 2338     		.short	14371
 684 0090 CCC9     		.short	-13876
 685 0092 EDD9     		.short	-9747
 686 0094 8EE9     		.short	-5746
 687 0096 AFF9     		.short	-1617
 688 0098 4889     		.short	-30392
 689 009a 6999     		.short	-26263
 690 009c 0AA9     		.short	-22262
 691 009e 2BB9     		.short	-18133
 692 00a0 F55A     		.short	23285
 693 00a2 D44A     		.short	19156
 694 00a4 B77A     		.short	31415
 695 00a6 966A     		.short	27286
 696 00a8 711A     		.short	6769
 697 00aa 500A     		.short	2640
 698 00ac 333A     		.short	14899
 699 00ae 122A     		.short	10770
 700 00b0 FDDB     		.short	-9219
 701 00b2 DCCB     		.short	-13348
 702 00b4 BFFB     		.short	-1089
 703 00b6 9EEB     		.short	-5218
 704 00b8 799B     		.short	-25735
 705 00ba 588B     		.short	-29864
 706 00bc 3BBB     		.short	-17605
 707 00be 1AAB     		.short	-21734
 708 00c0 A66C     		.short	27814
 709 00c2 877C     		.short	31879
 710 00c4 E44C     		.short	19684
 711 00c6 C55C     		.short	23749
 712 00c8 222C     		.short	11298
 713 00ca 033C     		.short	15363
 714 00cc 600C     		.short	3168
 715 00ce 411C     		.short	7233
 716 00d0 AEED     		.short	-4690
 717 00d2 8FFD     		.short	-625
 718 00d4 ECCD     		.short	-12820
 719 00d6 CDDD     		.short	-8755
 720 00d8 2AAD     		.short	-21206
 721 00da 0BBD     		.short	-17141
 722 00dc 688D     		.short	-29336
 723 00de 499D     		.short	-25271
 724 00e0 977E     		.short	32407
 725 00e2 B66E     		.short	28342
 726 00e4 D55E     		.short	24277
 727 00e6 F44E     		.short	20212
 728 00e8 133E     		.short	15891
 729 00ea 322E     		.short	11826
 730 00ec 511E     		.short	7761
 731 00ee 700E     		.short	3696
 732 00f0 9FFF     		.short	-97
 733 00f2 BEEF     		.short	-4162
 734 00f4 DDDF     		.short	-8227
 735 00f6 FCCF     		.short	-12292
 736 00f8 1BBF     		.short	-16613
 737 00fa 3AAF     		.short	-20678
 738 00fc 599F     		.short	-24743
 739 00fe 788F     		.short	-28808
 740 0100 8891     		.short	-28280
 741 0102 A981     		.short	-32343
 742 0104 CAB1     		.short	-20022
 743 0106 EBA1     		.short	-24085
 744 0108 0CD1     		.short	-12020
 745 010a 2DC1     		.short	-16083
 746 010c 4EF1     		.short	-3762
 747 010e 6FE1     		.short	-7825
 748 0110 8010     		.short	4224
 749 0112 A100     		.short	161
 750 0114 C230     		.short	12482
 751 0116 E320     		.short	8419
 752 0118 0450     		.short	20484
 753 011a 2540     		.short	16421
 754 011c 4670     		.short	28742
 755 011e 6760     		.short	24679
 756 0120 B983     		.short	-31815
 757 0122 9893     		.short	-27752
 758 0124 FBA3     		.short	-23557
 759 0126 DAB3     		.short	-19494
 760 0128 3DC3     		.short	-15555
 761 012a 1CD3     		.short	-11492
 762 012c 7FE3     		.short	-7297
 763 012e 5EF3     		.short	-3234
 764 0130 B102     		.short	689
 765 0132 9012     		.short	4752
 766 0134 F322     		.short	8947
 767 0136 D232     		.short	13010
 768 0138 3542     		.short	16949
 769 013a 1452     		.short	21012
 770 013c 7762     		.short	25207
 771 013e 5672     		.short	29270
 772 0140 EAB5     		.short	-18966
 773 0142 CBA5     		.short	-23093
 774 0144 A895     		.short	-27224
 775 0146 8985     		.short	-31351
 776 0148 6EF5     		.short	-2706
 777 014a 4FE5     		.short	-6833
 778 014c 2CD5     		.short	-10964
 779 014e 0DC5     		.short	-15091
 780 0150 E234     		.short	13538
 781 0152 C324     		.short	9411
 782 0154 A014     		.short	5280
 783 0156 8104     		.short	1153
 784 0158 6674     		.short	29798
 785 015a 4764     		.short	25671
 786 015c 2454     		.short	21540
 787 015e 0544     		.short	17413
 788 0160 DBA7     		.short	-22565
 789 0162 FAB7     		.short	-18438
 790 0164 9987     		.short	-30823
 791 0166 B897     		.short	-26696
 792 0168 5FE7     		.short	-6305
 793 016a 7EF7     		.short	-2178
 794 016c 1DC7     		.short	-14563
 795 016e 3CD7     		.short	-10436
 796 0170 D326     		.short	9939
 797 0172 F236     		.short	14066
 798 0174 9106     		.short	1681
 799 0176 B016     		.short	5808
 800 0178 5766     		.short	26199
 801 017a 7676     		.short	30326
 802 017c 1546     		.short	17941
 803 017e 3456     		.short	22068
 804 0180 4CD9     		.short	-9908
 805 0182 6DC9     		.short	-13971
 806 0184 0EF9     		.short	-1778
 807 0186 2FE9     		.short	-5841
 808 0188 C899     		.short	-26168
 809 018a E989     		.short	-30231
 810 018c 8AB9     		.short	-18038
 811 018e ABA9     		.short	-22101
 812 0190 4458     		.short	22596
 813 0192 6548     		.short	18533
 814 0194 0678     		.short	30726
 815 0196 2768     		.short	26663
 816 0198 C018     		.short	6336
 817 019a E108     		.short	2273
 818 019c 8238     		.short	14466
 819 019e A328     		.short	10403
 820 01a0 7DCB     		.short	-13443
 821 01a2 5CDB     		.short	-9380
 822 01a4 3FEB     		.short	-5313
 823 01a6 1EFB     		.short	-1250
 824 01a8 F98B     		.short	-29703
 825 01aa D89B     		.short	-25640
 826 01ac BBAB     		.short	-21573
 827 01ae 9ABB     		.short	-17510
 828 01b0 754A     		.short	19061
 829 01b2 545A     		.short	23124
 830 01b4 376A     		.short	27191
 831 01b6 167A     		.short	31254
 832 01b8 F10A     		.short	2801
 833 01ba D01A     		.short	6864
 834 01bc B32A     		.short	10931
 835 01be 923A     		.short	14994
 836 01c0 2EFD     		.short	-722
 837 01c2 0FED     		.short	-4849
 838 01c4 6CDD     		.short	-8852
 839 01c6 4DCD     		.short	-12979
 840 01c8 AABD     		.short	-16982
 841 01ca 8BAD     		.short	-21109
 842 01cc E89D     		.short	-25112
 843 01ce C98D     		.short	-29239
 844 01d0 267C     		.short	31782
 845 01d2 076C     		.short	27655
 846 01d4 645C     		.short	23652
 847 01d6 454C     		.short	19525
 848 01d8 A23C     		.short	15522
 849 01da 832C     		.short	11395
 850 01dc E01C     		.short	7392
 851 01de C10C     		.short	3265
 852 01e0 1FEF     		.short	-4321
 853 01e2 3EFF     		.short	-194
 854 01e4 5DCF     		.short	-12451
 855 01e6 7CDF     		.short	-8324
 856 01e8 9BAF     		.short	-20581
 857 01ea BABF     		.short	-16454
 858 01ec D98F     		.short	-28711
 859 01ee F89F     		.short	-24584
 860 01f0 176E     		.short	28183
 861 01f2 367E     		.short	32310
 862 01f4 554E     		.short	20053
 863 01f6 745E     		.short	24180
 864 01f8 932E     		.short	11923
 865 01fa B23E     		.short	16050
 866 01fc D10E     		.short	3793
 867 01fe F01E     		.short	7920
 868              		.ident	"GCC: (GNU Tools for ARM Embedded Processors) 4.8.3 20140228 (release) [ARM/embedded-4_8-br
DEFINED SYMBOLS
                            *ABS*:00000000 sam_ba_serial.c
C:\cygwin\tmp\ccx0dPKc.s:15     .text.serial_open:00000000 $t
C:\cygwin\tmp\ccx0dPKc.s:20     .text.serial_open:00000000 serial_open
C:\cygwin\tmp\ccx0dPKc.s:59     .text.serial_open:00000050 $d
                            *COM*:00000001 b_sharp_received
                            *COM*:00000001 idx_rx_read
                            *COM*:00000001 idx_rx_write
                            *COM*:00000001 idx_tx_read
                            *COM*:00000001 idx_tx_write
                            *COM*:00000001 error_timeout
C:\cygwin\tmp\ccx0dPKc.s:72     .text.serial_close:00000000 $t
C:\cygwin\tmp\ccx0dPKc.s:77     .text.serial_close:00000000 serial_close
C:\cygwin\tmp\ccx0dPKc.s:86     .text.serial_close:0000000c $d
C:\cygwin\tmp\ccx0dPKc.s:89     .text.serial_putc:00000000 $t
C:\cygwin\tmp\ccx0dPKc.s:94     .text.serial_putc:00000000 serial_putc
C:\cygwin\tmp\ccx0dPKc.s:105    .text.serial_putc:00000010 $d
C:\cygwin\tmp\ccx0dPKc.s:108    .text.serial_is_rx_ready:00000000 $t
C:\cygwin\tmp\ccx0dPKc.s:113    .text.serial_is_rx_ready:00000000 serial_is_rx_ready
C:\cygwin\tmp\ccx0dPKc.s:123    .text.serial_is_rx_ready:0000000c $d
C:\cygwin\tmp\ccx0dPKc.s:126    .text.serial_getc:00000000 $t
C:\cygwin\tmp\ccx0dPKc.s:131    .text.serial_getc:00000000 serial_getc
C:\cygwin\tmp\ccx0dPKc.s:144    .text.serial_getc:00000014 $d
C:\cygwin\tmp\ccx0dPKc.s:147    .text.serial_sharp_received:00000000 $t
C:\cygwin\tmp\ccx0dPKc.s:152    .text.serial_sharp_received:00000000 serial_sharp_received
C:\cygwin\tmp\ccx0dPKc.s:169    .text.serial_readc:00000000 $t
C:\cygwin\tmp\ccx0dPKc.s:174    .text.serial_readc:00000000 serial_readc
C:\cygwin\tmp\ccx0dPKc.s:191    .text.serial_readc:00000018 $d
                            *COM*:00000080 buffer_rx_usart
C:\cygwin\tmp\ccx0dPKc.s:195    .text.serial_putdata:00000000 $t
C:\cygwin\tmp\ccx0dPKc.s:200    .text.serial_putdata:00000000 serial_putdata
C:\cygwin\tmp\ccx0dPKc.s:218    .text.serial_getdata:00000000 $t
C:\cygwin\tmp\ccx0dPKc.s:223    .text.serial_getdata:00000000 serial_getdata
C:\cygwin\tmp\ccx0dPKc.s:233    .text.serial_add_crc:00000000 $t
C:\cygwin\tmp\ccx0dPKc.s:238    .text.serial_add_crc:00000000 serial_add_crc
C:\cygwin\tmp\ccx0dPKc.s:252    .text.serial_add_crc:00000014 $d
C:\cygwin\tmp\ccx0dPKc.s:255    .text.getbytes:00000000 $t
C:\cygwin\tmp\ccx0dPKc.s:259    .text.getbytes:00000000 getbytes
C:\cygwin\tmp\ccx0dPKc.s:312    .text.getbytes:00000058 $d
                            *COM*:00000002 size_of_data
                            *COM*:00000001 mode_of_transfer
C:\cygwin\tmp\ccx0dPKc.s:317    .text.serial_putdata_xmd:00000000 $t
C:\cygwin\tmp\ccx0dPKc.s:322    .text.serial_putdata_xmd:00000000 serial_putdata_xmd
C:\cygwin\tmp\ccx0dPKc.s:455    .text.serial_putdata_xmd:000000fc $d
C:\cygwin\tmp\ccx0dPKc.s:460    .text.serial_getdata_xmd:00000000 $t
C:\cygwin\tmp\ccx0dPKc.s:465    .text.serial_getdata_xmd:00000000 serial_getdata_xmd
C:\cygwin\tmp\ccx0dPKc.s:591    .text.serial_getdata_xmd:000000e4 $d
                            *COM*:00000080 buffer_tx_usart
C:\cygwin\tmp\ccx0dPKc.s:607    .rodata.crc16Table:00000000 $d
C:\cygwin\tmp\ccx0dPKc.s:611    .rodata.crc16Table:00000000 crc16Table

UNDEFINED SYMBOLS
pinMux
waitForSync
uart_basic_init
uart_disable
uart_write_byte
uart_read_byte
